
unit6_les3_lab1.elf:     file format elf32-littlearm


Disassembly of section .text:

08000000 <main-0x50>:
 8000000:	20001000 	andcs	r1, r0, r0
 8000004:	080000c8 	stmdaeq	r0, {r3, r6, r7}
 8000008:	080000cf 	stmdaeq	r0, {r0, r1, r2, r3, r6, r7}
 800000c:	080000cf 	stmdaeq	r0, {r0, r1, r2, r3, r6, r7}
 8000010:	080000cf 	stmdaeq	r0, {r0, r1, r2, r3, r6, r7}
 8000014:	080000cf 	stmdaeq	r0, {r0, r1, r2, r3, r6, r7}
 8000018:	080000cf 	stmdaeq	r0, {r0, r1, r2, r3, r6, r7}
 800001c:	080000cf 	stmdaeq	r0, {r0, r1, r2, r3, r6, r7}
 8000020:	080000cf 	stmdaeq	r0, {r0, r1, r2, r3, r6, r7}
 8000024:	080000cf 	stmdaeq	r0, {r0, r1, r2, r3, r6, r7}
 8000028:	080000cf 	stmdaeq	r0, {r0, r1, r2, r3, r6, r7}
 800002c:	080000cf 	stmdaeq	r0, {r0, r1, r2, r3, r6, r7}
 8000030:	080000cf 	stmdaeq	r0, {r0, r1, r2, r3, r6, r7}
 8000034:	080000cf 	stmdaeq	r0, {r0, r1, r2, r3, r6, r7}
 8000038:	080000cf 	stmdaeq	r0, {r0, r1, r2, r3, r6, r7}
 800003c:	080000cf 	stmdaeq	r0, {r0, r1, r2, r3, r6, r7}
 8000040:	080000cf 	stmdaeq	r0, {r0, r1, r2, r3, r6, r7}
 8000044:	080000cf 	stmdaeq	r0, {r0, r1, r2, r3, r6, r7}
 8000048:	080000cf 	stmdaeq	r0, {r0, r1, r2, r3, r6, r7}
 800004c:	080000cf 	stmdaeq	r0, {r0, r1, r2, r3, r6, r7}

08000050 <main>:
 8000050:	b480      	push	{r7}
 8000052:	b083      	sub	sp, #12
 8000054:	af00      	add	r7, sp, #0
 8000056:	4b19      	ldr	r3, [pc, #100]	; (80000bc <main+0x6c>)
 8000058:	681b      	ldr	r3, [r3, #0]
 800005a:	4a18      	ldr	r2, [pc, #96]	; (80000bc <main+0x6c>)
 800005c:	f043 0304 	orr.w	r3, r3, #4
 8000060:	6013      	str	r3, [r2, #0]
 8000062:	4b17      	ldr	r3, [pc, #92]	; (80000c0 <main+0x70>)
 8000064:	681b      	ldr	r3, [r3, #0]
 8000066:	4a16      	ldr	r2, [pc, #88]	; (80000c0 <main+0x70>)
 8000068:	f423 0370 	bic.w	r3, r3, #15728640	; 0xf00000
 800006c:	6013      	str	r3, [r2, #0]
 800006e:	4b14      	ldr	r3, [pc, #80]	; (80000c0 <main+0x70>)
 8000070:	681b      	ldr	r3, [r3, #0]
 8000072:	4a13      	ldr	r2, [pc, #76]	; (80000c0 <main+0x70>)
 8000074:	f443 1300 	orr.w	r3, r3, #2097152	; 0x200000
 8000078:	6013      	str	r3, [r2, #0]
 800007a:	4b12      	ldr	r3, [pc, #72]	; (80000c4 <main+0x74>)
 800007c:	681a      	ldr	r2, [r3, #0]
 800007e:	8813      	ldrh	r3, [r2, #0]
 8000080:	f443 5300 	orr.w	r3, r3, #8192	; 0x2000
 8000084:	8013      	strh	r3, [r2, #0]
 8000086:	2300      	movs	r3, #0
 8000088:	607b      	str	r3, [r7, #4]
 800008a:	e002      	b.n	8000092 <main+0x42>
 800008c:	687b      	ldr	r3, [r7, #4]
 800008e:	3301      	adds	r3, #1
 8000090:	607b      	str	r3, [r7, #4]
 8000092:	687b      	ldr	r3, [r7, #4]
 8000094:	f5b3 7f7a 	cmp.w	r3, #1000	; 0x3e8
 8000098:	dbf8      	blt.n	800008c <main+0x3c>
 800009a:	4b0a      	ldr	r3, [pc, #40]	; (80000c4 <main+0x74>)
 800009c:	681a      	ldr	r2, [r3, #0]
 800009e:	8813      	ldrh	r3, [r2, #0]
 80000a0:	f36f 334d 	bfc	r3, #13, #1
 80000a4:	8013      	strh	r3, [r2, #0]
 80000a6:	2300      	movs	r3, #0
 80000a8:	603b      	str	r3, [r7, #0]
 80000aa:	e002      	b.n	80000b2 <main+0x62>
 80000ac:	683b      	ldr	r3, [r7, #0]
 80000ae:	3301      	adds	r3, #1
 80000b0:	603b      	str	r3, [r7, #0]
 80000b2:	683b      	ldr	r3, [r7, #0]
 80000b4:	f5b3 7f7a 	cmp.w	r3, #1000	; 0x3e8
 80000b8:	dbf8      	blt.n	80000ac <main+0x5c>
 80000ba:	e7de      	b.n	800007a <main+0x2a>
 80000bc:	40021018 	andmi	r1, r2, r8, lsl r0
 80000c0:	40010804 	andmi	r0, r1, r4, lsl #16
 80000c4:	080000d0 	stmdaeq	r0, {r4, r6, r7}

080000c8 <_reset>:
 80000c8:	f7ff ffc2 	bl	8000050 <main>
 80000cc:	e7fe      	b.n	80000cc <_reset+0x4>

080000ce <Vector_handler>:
 80000ce:	e7fb      	b.n	80000c8 <_reset>
