
Masri.elf:     file format elf32-littlearm


Disassembly of section .reset:

00010000 <reset>:
   10000:	e59fd004 	ldr	sp, [pc, #4]	; 1000c <stop+0x4>
   10004:	eb000001 	bl	10010 <main>

00010008 <stop>:
   10008:	eafffffe 	b	10008 <stop>
   1000c:	000110e8 	andeq	r1, r1, r8, ror #1

Disassembly of section .text:

00010010 <main>:
   10010:	e92d4800 	push	{fp, lr}
   10014:	e28db004 	add	fp, sp, #4
   10018:	e59f0008 	ldr	r0, [pc, #8]	; 10028 <main+0x18>
   1001c:	eb000002 	bl	1002c <uart_send_string>
   10020:	e1a00000 	nop			; (mov r0, r0)
   10024:	e8bd8800 	pop	{fp, pc}
   10028:	00010084 	andeq	r0, r1, r4, lsl #1

0001002c <uart_send_string>:
   1002c:	e52db004 	push	{fp}		; (str fp, [sp, #-4]!)
   10030:	e28db000 	add	fp, sp, #0
   10034:	e24dd00c 	sub	sp, sp, #12
   10038:	e50b0008 	str	r0, [fp, #-8]
   1003c:	ea000006 	b	1005c <uart_send_string+0x30>
   10040:	e51b3008 	ldr	r3, [fp, #-8]
   10044:	e5d32000 	ldrb	r2, [r3]
   10048:	e59f3030 	ldr	r3, [pc, #48]	; 10080 <uart_send_string+0x54>
   1004c:	e5832000 	str	r2, [r3]
   10050:	e51b3008 	ldr	r3, [fp, #-8]
   10054:	e2833001 	add	r3, r3, #1
   10058:	e50b3008 	str	r3, [fp, #-8]
   1005c:	e51b3008 	ldr	r3, [fp, #-8]
   10060:	e5d33000 	ldrb	r3, [r3]
   10064:	e3530000 	cmp	r3, #0
   10068:	1afffff4 	bne	10040 <uart_send_string+0x14>
   1006c:	e1a00000 	nop			; (mov r0, r0)
   10070:	e1a00000 	nop			; (mov r0, r0)
   10074:	e28bd000 	add	sp, fp, #0
   10078:	e49db004 	pop	{fp}		; (ldr fp, [sp], #4)
   1007c:	e12fff1e 	bx	lr
   10080:	101f1000 	andsne	r1, pc, r0

Disassembly of section .reset:

00010000 <reset>:
   10000:	e59fd004 	ldr	sp, [pc, #4]	; 1000c <stop+0x4>
   10004:	eb000001 	bl	10010 <main>

00010008 <stop>:
   10008:	eafffffe 	b	10008 <stop>
   1000c:	000110e8 	andeq	r1, r1, r8, ror #1

Disassembly of section .text:

00010010 <main>:
   10010:	e92d4800 	push	{fp, lr}
   10014:	e28db004 	add	fp, sp, #4
   10018:	e59f0008 	ldr	r0, [pc, #8]	; 10028 <main+0x18>
   1001c:	eb000002 	bl	1002c <uart_send_string>
   10020:	e1a00000 	nop			; (mov r0, r0)
   10024:	e8bd8800 	pop	{fp, pc}
   10028:	00010084 	andeq	r0, r1, r4, lsl #1

0001002c <uart_send_string>:
   1002c:	e52db004 	push	{fp}		; (str fp, [sp, #-4]!)
   10030:	e28db000 	add	fp, sp, #0
   10034:	e24dd00c 	sub	sp, sp, #12
   10038:	e50b0008 	str	r0, [fp, #-8]
   1003c:	ea000006 	b	1005c <uart_send_string+0x30>
   10040:	e51b3008 	ldr	r3, [fp, #-8]
   10044:	e5d32000 	ldrb	r2, [r3]
   10048:	e59f3030 	ldr	r3, [pc, #48]	; 10080 <uart_send_string+0x54>
   1004c:	e5832000 	str	r2, [r3]
   10050:	e51b3008 	ldr	r3, [fp, #-8]
   10054:	e2833001 	add	r3, r3, #1
   10058:	e50b3008 	str	r3, [fp, #-8]
   1005c:	e51b3008 	ldr	r3, [fp, #-8]
   10060:	e5d33000 	ldrb	r3, [r3]
   10064:	e3530000 	cmp	r3, #0
   10068:	1afffff4 	bne	10040 <uart_send_string+0x14>
   1006c:	e1a00000 	nop			; (mov r0, r0)
   10070:	e1a00000 	nop			; (mov r0, r0)
   10074:	e28bd000 	add	sp, fp, #0
   10078:	e49db004 	pop	{fp}		; (ldr fp, [sp], #4)
   1007c:	e12fff1e 	bx	lr
   10080:	101f1000 	andsne	r1, pc, r0
