
a.out:     file format elf64-x86-64


Disassembly of section .init:

0000000000001000 <_init>:
    1000:	f3 0f 1e fa          	endbr64 
    1004:	48 83 ec 08          	sub    $0x8,%rsp
    1008:	48 8b 05 c9 3f 00 00 	mov    0x3fc9(%rip),%rax        # 4fd8 <__gmon_start__@Base>
    100f:	48 85 c0             	test   %rax,%rax
    1012:	74 02                	je     1016 <_init+0x16>
    1014:	ff d0                	call   *%rax
    1016:	48 83 c4 08          	add    $0x8,%rsp
    101a:	c3                   	ret    

Disassembly of section .plt:

0000000000001020 <.plt>:
    1020:	ff 35 22 3f 00 00    	push   0x3f22(%rip)        # 4f48 <_GLOBAL_OFFSET_TABLE_+0x8>
    1026:	f2 ff 25 23 3f 00 00 	bnd jmp *0x3f23(%rip)        # 4f50 <_GLOBAL_OFFSET_TABLE_+0x10>
    102d:	0f 1f 00             	nopl   (%rax)
    1030:	f3 0f 1e fa          	endbr64 
    1034:	68 00 00 00 00       	push   $0x0
    1039:	f2 e9 e1 ff ff ff    	bnd jmp 1020 <_init+0x20>
    103f:	90                   	nop
    1040:	f3 0f 1e fa          	endbr64 
    1044:	68 01 00 00 00       	push   $0x1
    1049:	f2 e9 d1 ff ff ff    	bnd jmp 1020 <_init+0x20>
    104f:	90                   	nop
    1050:	f3 0f 1e fa          	endbr64 
    1054:	68 02 00 00 00       	push   $0x2
    1059:	f2 e9 c1 ff ff ff    	bnd jmp 1020 <_init+0x20>
    105f:	90                   	nop
    1060:	f3 0f 1e fa          	endbr64 
    1064:	68 03 00 00 00       	push   $0x3
    1069:	f2 e9 b1 ff ff ff    	bnd jmp 1020 <_init+0x20>
    106f:	90                   	nop
    1070:	f3 0f 1e fa          	endbr64 
    1074:	68 04 00 00 00       	push   $0x4
    1079:	f2 e9 a1 ff ff ff    	bnd jmp 1020 <_init+0x20>
    107f:	90                   	nop
    1080:	f3 0f 1e fa          	endbr64 
    1084:	68 05 00 00 00       	push   $0x5
    1089:	f2 e9 91 ff ff ff    	bnd jmp 1020 <_init+0x20>
    108f:	90                   	nop
    1090:	f3 0f 1e fa          	endbr64 
    1094:	68 06 00 00 00       	push   $0x6
    1099:	f2 e9 81 ff ff ff    	bnd jmp 1020 <_init+0x20>
    109f:	90                   	nop
    10a0:	f3 0f 1e fa          	endbr64 
    10a4:	68 07 00 00 00       	push   $0x7
    10a9:	f2 e9 71 ff ff ff    	bnd jmp 1020 <_init+0x20>
    10af:	90                   	nop
    10b0:	f3 0f 1e fa          	endbr64 
    10b4:	68 08 00 00 00       	push   $0x8
    10b9:	f2 e9 61 ff ff ff    	bnd jmp 1020 <_init+0x20>
    10bf:	90                   	nop
    10c0:	f3 0f 1e fa          	endbr64 
    10c4:	68 09 00 00 00       	push   $0x9
    10c9:	f2 e9 51 ff ff ff    	bnd jmp 1020 <_init+0x20>
    10cf:	90                   	nop
    10d0:	f3 0f 1e fa          	endbr64 
    10d4:	68 0a 00 00 00       	push   $0xa
    10d9:	f2 e9 41 ff ff ff    	bnd jmp 1020 <_init+0x20>
    10df:	90                   	nop
    10e0:	f3 0f 1e fa          	endbr64 
    10e4:	68 0b 00 00 00       	push   $0xb
    10e9:	f2 e9 31 ff ff ff    	bnd jmp 1020 <_init+0x20>
    10ef:	90                   	nop
    10f0:	f3 0f 1e fa          	endbr64 
    10f4:	68 0c 00 00 00       	push   $0xc
    10f9:	f2 e9 21 ff ff ff    	bnd jmp 1020 <_init+0x20>
    10ff:	90                   	nop
    1100:	f3 0f 1e fa          	endbr64 
    1104:	68 0d 00 00 00       	push   $0xd
    1109:	f2 e9 11 ff ff ff    	bnd jmp 1020 <_init+0x20>
    110f:	90                   	nop

Disassembly of section .plt.got:

0000000000001110 <__cxa_finalize@plt>:
    1110:	f3 0f 1e fa          	endbr64 
    1114:	f2 ff 25 cd 3e 00 00 	bnd jmp *0x3ecd(%rip)        # 4fe8 <__cxa_finalize@GLIBC_2.2.5>
    111b:	0f 1f 44 00 00       	nopl   0x0(%rax,%rax,1)

Disassembly of section .plt.sec:

0000000000001120 <strncpy@plt>:
    1120:	f3 0f 1e fa          	endbr64 
    1124:	f2 ff 25 2d 3e 00 00 	bnd jmp *0x3e2d(%rip)        # 4f58 <strncpy@GLIBC_2.2.5>
    112b:	0f 1f 44 00 00       	nopl   0x0(%rax,%rax,1)

0000000000001130 <puts@plt>:
    1130:	f3 0f 1e fa          	endbr64 
    1134:	f2 ff 25 25 3e 00 00 	bnd jmp *0x3e25(%rip)        # 4f60 <puts@GLIBC_2.2.5>
    113b:	0f 1f 44 00 00       	nopl   0x0(%rax,%rax,1)

0000000000001140 <fclose@plt>:
    1140:	f3 0f 1e fa          	endbr64 
    1144:	f2 ff 25 1d 3e 00 00 	bnd jmp *0x3e1d(%rip)        # 4f68 <fclose@GLIBC_2.2.5>
    114b:	0f 1f 44 00 00       	nopl   0x0(%rax,%rax,1)

0000000000001150 <strlen@plt>:
    1150:	f3 0f 1e fa          	endbr64 
    1154:	f2 ff 25 15 3e 00 00 	bnd jmp *0x3e15(%rip)        # 4f70 <strlen@GLIBC_2.2.5>
    115b:	0f 1f 44 00 00       	nopl   0x0(%rax,%rax,1)

0000000000001160 <__stack_chk_fail@plt>:
    1160:	f3 0f 1e fa          	endbr64 
    1164:	f2 ff 25 0d 3e 00 00 	bnd jmp *0x3e0d(%rip)        # 4f78 <__stack_chk_fail@GLIBC_2.4>
    116b:	0f 1f 44 00 00       	nopl   0x0(%rax,%rax,1)

0000000000001170 <printf@plt>:
    1170:	f3 0f 1e fa          	endbr64 
    1174:	f2 ff 25 05 3e 00 00 	bnd jmp *0x3e05(%rip)        # 4f80 <printf@GLIBC_2.2.5>
    117b:	0f 1f 44 00 00       	nopl   0x0(%rax,%rax,1)

0000000000001180 <memset@plt>:
    1180:	f3 0f 1e fa          	endbr64 
    1184:	f2 ff 25 fd 3d 00 00 	bnd jmp *0x3dfd(%rip)        # 4f88 <memset@GLIBC_2.2.5>
    118b:	0f 1f 44 00 00       	nopl   0x0(%rax,%rax,1)

0000000000001190 <fgets@plt>:
    1190:	f3 0f 1e fa          	endbr64 
    1194:	f2 ff 25 f5 3d 00 00 	bnd jmp *0x3df5(%rip)        # 4f90 <fgets@GLIBC_2.2.5>
    119b:	0f 1f 44 00 00       	nopl   0x0(%rax,%rax,1)

00000000000011a0 <strcmp@plt>:
    11a0:	f3 0f 1e fa          	endbr64 
    11a4:	f2 ff 25 ed 3d 00 00 	bnd jmp *0x3ded(%rip)        # 4f98 <strcmp@GLIBC_2.2.5>
    11ab:	0f 1f 44 00 00       	nopl   0x0(%rax,%rax,1)

00000000000011b0 <strtol@plt>:
    11b0:	f3 0f 1e fa          	endbr64 
    11b4:	f2 ff 25 e5 3d 00 00 	bnd jmp *0x3de5(%rip)        # 4fa0 <strtol@GLIBC_2.2.5>
    11bb:	0f 1f 44 00 00       	nopl   0x0(%rax,%rax,1)

00000000000011c0 <fopen@plt>:
    11c0:	f3 0f 1e fa          	endbr64 
    11c4:	f2 ff 25 dd 3d 00 00 	bnd jmp *0x3ddd(%rip)        # 4fa8 <fopen@GLIBC_2.2.5>
    11cb:	0f 1f 44 00 00       	nopl   0x0(%rax,%rax,1)

00000000000011d0 <perror@plt>:
    11d0:	f3 0f 1e fa          	endbr64 
    11d4:	f2 ff 25 d5 3d 00 00 	bnd jmp *0x3dd5(%rip)        # 4fb0 <perror@GLIBC_2.2.5>
    11db:	0f 1f 44 00 00       	nopl   0x0(%rax,%rax,1)

00000000000011e0 <atoi@plt>:
    11e0:	f3 0f 1e fa          	endbr64 
    11e4:	f2 ff 25 cd 3d 00 00 	bnd jmp *0x3dcd(%rip)        # 4fb8 <atoi@GLIBC_2.2.5>
    11eb:	0f 1f 44 00 00       	nopl   0x0(%rax,%rax,1)

00000000000011f0 <exit@plt>:
    11f0:	f3 0f 1e fa          	endbr64 
    11f4:	f2 ff 25 c5 3d 00 00 	bnd jmp *0x3dc5(%rip)        # 4fc0 <exit@GLIBC_2.2.5>
    11fb:	0f 1f 44 00 00       	nopl   0x0(%rax,%rax,1)

Disassembly of section .text:

0000000000001200 <_start>:
    1200:	f3 0f 1e fa          	endbr64 
    1204:	31 ed                	xor    %ebp,%ebp
    1206:	49 89 d1             	mov    %rdx,%r9
    1209:	5e                   	pop    %rsi
    120a:	48 89 e2             	mov    %rsp,%rdx
    120d:	48 83 e4 f0          	and    $0xfffffffffffffff0,%rsp
    1211:	50                   	push   %rax
    1212:	54                   	push   %rsp
    1213:	4c 8d 05 36 0f 00 00 	lea    0xf36(%rip),%r8        # 2150 <__libc_csu_fini>
    121a:	48 8d 0d bf 0e 00 00 	lea    0xebf(%rip),%rcx        # 20e0 <__libc_csu_init>
    1221:	48 8d 3d 98 01 00 00 	lea    0x198(%rip),%rdi        # 13c0 <main>
    1228:	ff 15 a2 3d 00 00    	call   *0x3da2(%rip)        # 4fd0 <__libc_start_main@GLIBC_2.2.5>
    122e:	f4                   	hlt    
    122f:	90                   	nop

0000000000001230 <deregister_tm_clones>:
    1230:	48 8d 3d d9 3d 00 00 	lea    0x3dd9(%rip),%rdi        # 5010 <__TMC_END__>
    1237:	48 8d 05 d2 3d 00 00 	lea    0x3dd2(%rip),%rax        # 5010 <__TMC_END__>
    123e:	48 39 f8             	cmp    %rdi,%rax
    1241:	74 15                	je     1258 <deregister_tm_clones+0x28>
    1243:	48 8b 05 7e 3d 00 00 	mov    0x3d7e(%rip),%rax        # 4fc8 <_ITM_deregisterTMCloneTable@Base>
    124a:	48 85 c0             	test   %rax,%rax
    124d:	74 09                	je     1258 <deregister_tm_clones+0x28>
    124f:	ff e0                	jmp    *%rax
    1251:	0f 1f 80 00 00 00 00 	nopl   0x0(%rax)
    1258:	c3                   	ret    
    1259:	0f 1f 80 00 00 00 00 	nopl   0x0(%rax)

0000000000001260 <register_tm_clones>:
    1260:	48 8d 3d a9 3d 00 00 	lea    0x3da9(%rip),%rdi        # 5010 <__TMC_END__>
    1267:	48 8d 35 a2 3d 00 00 	lea    0x3da2(%rip),%rsi        # 5010 <__TMC_END__>
    126e:	48 29 fe             	sub    %rdi,%rsi
    1271:	48 89 f0             	mov    %rsi,%rax
    1274:	48 c1 ee 3f          	shr    $0x3f,%rsi
    1278:	48 c1 f8 03          	sar    $0x3,%rax
    127c:	48 01 c6             	add    %rax,%rsi
    127f:	48 d1 fe             	sar    %rsi
    1282:	74 14                	je     1298 <register_tm_clones+0x38>
    1284:	48 8b 05 55 3d 00 00 	mov    0x3d55(%rip),%rax        # 4fe0 <_ITM_registerTMCloneTable@Base>
    128b:	48 85 c0             	test   %rax,%rax
    128e:	74 08                	je     1298 <register_tm_clones+0x38>
    1290:	ff e0                	jmp    *%rax
    1292:	66 0f 1f 44 00 00    	nopw   0x0(%rax,%rax,1)
    1298:	c3                   	ret    
    1299:	0f 1f 80 00 00 00 00 	nopl   0x0(%rax)

00000000000012a0 <__do_global_dtors_aux>:
    12a0:	f3 0f 1e fa          	endbr64 
    12a4:	80 3d 7d 3d 00 00 00 	cmpb   $0x0,0x3d7d(%rip)        # 5028 <completed.8061>
    12ab:	75 2b                	jne    12d8 <__do_global_dtors_aux+0x38>
    12ad:	55                   	push   %rbp
    12ae:	48 83 3d 32 3d 00 00 	cmpq   $0x0,0x3d32(%rip)        # 4fe8 <__cxa_finalize@GLIBC_2.2.5>
    12b5:	00 
    12b6:	48 89 e5             	mov    %rsp,%rbp
    12b9:	74 0c                	je     12c7 <__do_global_dtors_aux+0x27>
    12bb:	48 8b 3d 46 3d 00 00 	mov    0x3d46(%rip),%rdi        # 5008 <__dso_handle>
    12c2:	e8 49 fe ff ff       	call   1110 <__cxa_finalize@plt>
    12c7:	e8 64 ff ff ff       	call   1230 <deregister_tm_clones>
    12cc:	c6 05 55 3d 00 00 01 	movb   $0x1,0x3d55(%rip)        # 5028 <completed.8061>
    12d3:	5d                   	pop    %rbp
    12d4:	c3                   	ret    
    12d5:	0f 1f 00             	nopl   (%rax)
    12d8:	c3                   	ret    
    12d9:	0f 1f 80 00 00 00 00 	nopl   0x0(%rax)

00000000000012e0 <frame_dummy>:
    12e0:	f3 0f 1e fa          	endbr64 
    12e4:	e9 77 ff ff ff       	jmp    1260 <register_tm_clones>

00000000000012e9 <Disp_Options>:
    12e9:	f3 0f 1e fa          	endbr64 
    12ed:	55                   	push   %rbp
    12ee:	48 89 e5             	mov    %rsp,%rbp
    12f1:	48 8d 3d 10 1d 00 00 	lea    0x1d10(%rip),%rdi        # 3008 <_IO_stdin_used+0x8>
    12f8:	b8 00 00 00 00       	mov    $0x0,%eax
    12fd:	e8 6e fe ff ff       	call   1170 <printf@plt>
    1302:	48 8d 3d 27 1d 00 00 	lea    0x1d27(%rip),%rdi        # 3030 <_IO_stdin_used+0x30>
    1309:	b8 00 00 00 00       	mov    $0x0,%eax
    130e:	e8 5d fe ff ff       	call   1170 <printf@plt>
    1313:	48 8d 3d 3e 1d 00 00 	lea    0x1d3e(%rip),%rdi        # 3058 <_IO_stdin_used+0x58>
    131a:	b8 00 00 00 00       	mov    $0x0,%eax
    131f:	e8 4c fe ff ff       	call   1170 <printf@plt>
    1324:	48 8d 3d 5d 1d 00 00 	lea    0x1d5d(%rip),%rdi        # 3088 <_IO_stdin_used+0x88>
    132b:	b8 00 00 00 00       	mov    $0x0,%eax
    1330:	e8 3b fe ff ff       	call   1170 <printf@plt>
    1335:	48 8d 3d 7c 1d 00 00 	lea    0x1d7c(%rip),%rdi        # 30b8 <_IO_stdin_used+0xb8>
    133c:	b8 00 00 00 00       	mov    $0x0,%eax
    1341:	e8 2a fe ff ff       	call   1170 <printf@plt>
    1346:	48 8d 3d 9b 1d 00 00 	lea    0x1d9b(%rip),%rdi        # 30e8 <_IO_stdin_used+0xe8>
    134d:	b8 00 00 00 00       	mov    $0x0,%eax
    1352:	e8 19 fe ff ff       	call   1170 <printf@plt>
    1357:	48 8d 3d b2 1d 00 00 	lea    0x1db2(%rip),%rdi        # 3110 <_IO_stdin_used+0x110>
    135e:	b8 00 00 00 00       	mov    $0x0,%eax
    1363:	e8 08 fe ff ff       	call   1170 <printf@plt>
    1368:	48 8d 3d c9 1d 00 00 	lea    0x1dc9(%rip),%rdi        # 3138 <_IO_stdin_used+0x138>
    136f:	b8 00 00 00 00       	mov    $0x0,%eax
    1374:	e8 f7 fd ff ff       	call   1170 <printf@plt>
    1379:	48 8d 3d e8 1d 00 00 	lea    0x1de8(%rip),%rdi        # 3168 <_IO_stdin_used+0x168>
    1380:	b8 00 00 00 00       	mov    $0x0,%eax
    1385:	e8 e6 fd ff ff       	call   1170 <printf@plt>
    138a:	48 8d 3d 03 1e 00 00 	lea    0x1e03(%rip),%rdi        # 3194 <_IO_stdin_used+0x194>
    1391:	b8 00 00 00 00       	mov    $0x0,%eax
    1396:	e8 d5 fd ff ff       	call   1170 <printf@plt>
    139b:	48 8d 3d 0d 1e 00 00 	lea    0x1e0d(%rip),%rdi        # 31af <_IO_stdin_used+0x1af>
    13a2:	b8 00 00 00 00       	mov    $0x0,%eax
    13a7:	e8 c4 fd ff ff       	call   1170 <printf@plt>
    13ac:	48 8d 3d 0a 1e 00 00 	lea    0x1e0a(%rip),%rdi        # 31bd <_IO_stdin_used+0x1bd>
    13b3:	b8 00 00 00 00       	mov    $0x0,%eax
    13b8:	e8 b3 fd ff ff       	call   1170 <printf@plt>
    13bd:	90                   	nop
    13be:	5d                   	pop    %rbp
    13bf:	c3                   	ret    

00000000000013c0 <main>:
    13c0:	f3 0f 1e fa          	endbr64 
    13c4:	55                   	push   %rbp
    13c5:	48 89 e5             	mov    %rsp,%rbp
    13c8:	48 83 ec 10          	sub    $0x10,%rsp
    13cc:	64 48 8b 04 25 28 00 	mov    %fs:0x28,%rax
    13d3:	00 00 
    13d5:	48 89 45 f8          	mov    %rax,-0x8(%rbp)
    13d9:	31 c0                	xor    %eax,%eax
    13db:	48 8d 3d f6 1d 00 00 	lea    0x1df6(%rip),%rdi        # 31d8 <_IO_stdin_used+0x1d8>
    13e2:	b8 00 00 00 00       	mov    $0x0,%eax
    13e7:	e8 84 fd ff ff       	call   1170 <printf@plt>
    13ec:	e8 f8 fe ff ff       	call   12e9 <Disp_Options>
    13f1:	c6 45 f4 01          	movb   $0x1,-0xc(%rbp)
    13f5:	e9 9b 00 00 00       	jmp    1495 <main+0xd5>
    13fa:	48 8b 15 1f 3c 00 00 	mov    0x3c1f(%rip),%rdx        # 5020 <stdin@@GLIBC_2.2.5>
    1401:	48 8d 45 f5          	lea    -0xb(%rbp),%rax
    1405:	be 03 00 00 00       	mov    $0x3,%esi
    140a:	48 89 c7             	mov    %rax,%rdi
    140d:	e8 7e fd ff ff       	call   1190 <fgets@plt>
    1412:	48 8d 45 f5          	lea    -0xb(%rbp),%rax
    1416:	48 89 c7             	mov    %rax,%rdi
    1419:	e8 c2 fd ff ff       	call   11e0 <atoi@plt>
    141e:	89 c6                	mov    %eax,%esi
    1420:	48 8d 3d df 1d 00 00 	lea    0x1ddf(%rip),%rdi        # 3206 <_IO_stdin_used+0x206>
    1427:	b8 00 00 00 00       	mov    $0x0,%eax
    142c:	e8 3f fd ff ff       	call   1170 <printf@plt>
    1431:	48 8d 45 f5          	lea    -0xb(%rbp),%rax
    1435:	48 89 c7             	mov    %rax,%rdi
    1438:	e8 a3 fd ff ff       	call   11e0 <atoi@plt>
    143d:	83 f8 0a             	cmp    $0xa,%eax
    1440:	7f 10                	jg     1452 <main+0x92>
    1442:	48 8d 45 f5          	lea    -0xb(%rbp),%rax
    1446:	48 89 c7             	mov    %rax,%rdi
    1449:	e8 92 fd ff ff       	call   11e0 <atoi@plt>
    144e:	85 c0                	test   %eax,%eax
    1450:	79 18                	jns    146a <main+0xaa>
    1452:	be 0a 00 00 00       	mov    $0xa,%esi
    1457:	48 8d 3d c2 1d 00 00 	lea    0x1dc2(%rip),%rdi        # 3220 <_IO_stdin_used+0x220>
    145e:	b8 00 00 00 00       	mov    $0x0,%eax
    1463:	e8 08 fd ff ff       	call   1170 <printf@plt>
    1468:	eb 2b                	jmp    1495 <main+0xd5>
    146a:	48 8d 45 f5          	lea    -0xb(%rbp),%rax
    146e:	48 89 c7             	mov    %rax,%rdi
    1471:	e8 6a fd ff ff       	call   11e0 <atoi@plt>
    1476:	83 e8 01             	sub    $0x1,%eax
    1479:	48 98                	cltq   
    147b:	48 8d 14 c5 00 00 00 	lea    0x0(,%rax,8),%rdx
    1482:	00 
    1483:	48 8d 05 76 38 00 00 	lea    0x3876(%rip),%rax        # 4d00 <FcnPtr>
    148a:	48 8b 04 02          	mov    (%rdx,%rax,1),%rax
    148e:	ff d0                	call   *%rax
    1490:	e8 54 fe ff ff       	call   12e9 <Disp_Options>
    1495:	80 7d f4 00          	cmpb   $0x0,-0xc(%rbp)
    1499:	0f 85 5b ff ff ff    	jne    13fa <main+0x3a>
    149f:	b8 00 00 00 00       	mov    $0x0,%eax
    14a4:	48 8b 4d f8          	mov    -0x8(%rbp),%rcx
    14a8:	64 48 33 0c 25 28 00 	xor    %fs:0x28,%rcx
    14af:	00 00 
    14b1:	74 05                	je     14b8 <main+0xf8>
    14b3:	e8 a8 fc ff ff       	call   1160 <__stack_chk_fail@plt>
    14b8:	c9                   	leave  
    14b9:	c3                   	ret    

00000000000014ba <map_words>:
    14ba:	f3 0f 1e fa          	endbr64 
    14be:	55                   	push   %rbp
    14bf:	48 89 e5             	mov    %rsp,%rbp
    14c2:	48 83 ec 20          	sub    $0x20,%rsp
    14c6:	48 89 75 f0          	mov    %rsi,-0x10(%rbp)
    14ca:	48 89 55 e8          	mov    %rdx,-0x18(%rbp)
    14ce:	89 c8                	mov    %ecx,%eax
    14d0:	89 fa                	mov    %edi,%edx
    14d2:	88 55 fc             	mov    %dl,-0x4(%rbp)
    14d5:	88 45 f8             	mov    %al,-0x8(%rbp)
    14d8:	80 7d fc 00          	cmpb   $0x0,-0x4(%rbp)
    14dc:	7e 06                	jle    14e4 <map_words+0x2a>
    14de:	80 7d fc 09          	cmpb   $0x9,-0x4(%rbp)
    14e2:	7e 0a                	jle    14ee <map_words+0x34>
    14e4:	b8 02 00 00 00       	mov    $0x2,%eax
    14e9:	e9 ac 01 00 00       	jmp    169a <map_words+0x1e0>
    14ee:	0f be 45 fc          	movsbl -0x4(%rbp),%eax
    14f2:	83 f8 04             	cmp    $0x4,%eax
    14f5:	0f 84 2e 01 00 00    	je     1629 <map_words+0x16f>
    14fb:	83 f8 04             	cmp    $0x4,%eax
    14fe:	0f 8f 4d 01 00 00    	jg     1651 <map_words+0x197>
    1504:	83 f8 03             	cmp    $0x3,%eax
    1507:	0f 84 f4 00 00 00    	je     1601 <map_words+0x147>
    150d:	83 f8 03             	cmp    $0x3,%eax
    1510:	0f 8f 3b 01 00 00    	jg     1651 <map_words+0x197>
    1516:	83 f8 01             	cmp    $0x1,%eax
    1519:	74 0e                	je     1529 <map_words+0x6f>
    151b:	83 f8 02             	cmp    $0x2,%eax
    151e:	0f 84 b2 00 00 00    	je     15d6 <map_words+0x11c>
    1524:	e9 28 01 00 00       	jmp    1651 <map_words+0x197>
    1529:	48 8b 45 f0          	mov    -0x10(%rbp),%rax
    152d:	ba 0a 00 00 00       	mov    $0xa,%edx
    1532:	be 00 00 00 00       	mov    $0x0,%esi
    1537:	48 89 c7             	mov    %rax,%rdi
    153a:	e8 71 fc ff ff       	call   11b0 <strtol@plt>
    153f:	48 85 c0             	test   %rax,%rax
    1542:	7f 16                	jg     155a <map_words+0xa0>
    1544:	48 8d 3d 0d 1d 00 00 	lea    0x1d0d(%rip),%rdi        # 3258 <_IO_stdin_used+0x258>
    154b:	e8 e0 fb ff ff       	call   1130 <puts@plt>
    1550:	b8 03 00 00 00       	mov    $0x3,%eax
    1555:	e9 40 01 00 00       	jmp    169a <map_words+0x1e0>
    155a:	0f be 55 f8          	movsbl -0x8(%rbp),%edx
    155e:	48 8b 4d e8          	mov    -0x18(%rbp),%rcx
    1562:	48 8b 45 f0          	mov    -0x10(%rbp),%rax
    1566:	48 89 ce             	mov    %rcx,%rsi
    1569:	48 89 c7             	mov    %rax,%rdi
    156c:	e8 2b 01 00 00       	call   169c <rollnum_fail>
    1571:	84 c0                	test   %al,%al
    1573:	74 22                	je     1597 <map_words+0xdd>
    1575:	48 8b 45 f0          	mov    -0x10(%rbp),%rax
    1579:	48 89 c6             	mov    %rax,%rsi
    157c:	48 8d 3d f5 1c 00 00 	lea    0x1cf5(%rip),%rdi        # 3278 <_IO_stdin_used+0x278>
    1583:	b8 00 00 00 00       	mov    $0x0,%eax
    1588:	e8 e3 fb ff ff       	call   1170 <printf@plt>
    158d:	b8 01 00 00 00       	mov    $0x1,%eax
    1592:	e9 03 01 00 00       	jmp    169a <map_words+0x1e0>
    1597:	48 8b 45 f0          	mov    -0x10(%rbp),%rax
    159b:	48 89 c7             	mov    %rax,%rdi
    159e:	e8 ad fb ff ff       	call   1150 <strlen@plt>
    15a3:	48 89 c2             	mov    %rax,%rdx
    15a6:	48 8b 45 e8          	mov    -0x18(%rbp),%rax
    15aa:	48 8b 4d f0          	mov    -0x10(%rbp),%rcx
    15ae:	48 89 ce             	mov    %rcx,%rsi
    15b1:	48 89 c7             	mov    %rax,%rdi
    15b4:	e8 67 fb ff ff       	call   1120 <strncpy@plt>
    15b9:	48 8b 45 f0          	mov    -0x10(%rbp),%rax
    15bd:	48 89 c6             	mov    %rax,%rsi
    15c0:	48 8d 3d d9 1c 00 00 	lea    0x1cd9(%rip),%rdi        # 32a0 <_IO_stdin_used+0x2a0>
    15c7:	b8 00 00 00 00       	mov    $0x0,%eax
    15cc:	e8 9f fb ff ff       	call   1170 <printf@plt>
    15d1:	e9 bf 00 00 00       	jmp    1695 <map_words+0x1db>
    15d6:	48 8b 45 f0          	mov    -0x10(%rbp),%rax
    15da:	48 89 c7             	mov    %rax,%rdi
    15dd:	e8 6e fb ff ff       	call   1150 <strlen@plt>
    15e2:	48 89 c2             	mov    %rax,%rdx
    15e5:	48 8b 45 e8          	mov    -0x18(%rbp),%rax
    15e9:	48 8d 48 03          	lea    0x3(%rax),%rcx
    15ed:	48 8b 45 f0          	mov    -0x10(%rbp),%rax
    15f1:	48 89 c6             	mov    %rax,%rsi
    15f4:	48 89 cf             	mov    %rcx,%rdi
    15f7:	e8 24 fb ff ff       	call   1120 <strncpy@plt>
    15fc:	e9 94 00 00 00       	jmp    1695 <map_words+0x1db>
    1601:	48 8b 45 f0          	mov    -0x10(%rbp),%rax
    1605:	48 89 c7             	mov    %rax,%rdi
    1608:	e8 43 fb ff ff       	call   1150 <strlen@plt>
    160d:	48 89 c2             	mov    %rax,%rdx
    1610:	48 8b 45 e8          	mov    -0x18(%rbp),%rax
    1614:	48 8d 48 12          	lea    0x12(%rax),%rcx
    1618:	48 8b 45 f0          	mov    -0x10(%rbp),%rax
    161c:	48 89 c6             	mov    %rax,%rsi
    161f:	48 89 cf             	mov    %rcx,%rdi
    1622:	e8 f9 fa ff ff       	call   1120 <strncpy@plt>
    1627:	eb 6c                	jmp    1695 <map_words+0x1db>
    1629:	48 8b 45 f0          	mov    -0x10(%rbp),%rax
    162d:	48 89 c7             	mov    %rax,%rdi
    1630:	e8 1b fb ff ff       	call   1150 <strlen@plt>
    1635:	48 89 c2             	mov    %rax,%rdx
    1638:	48 8b 45 e8          	mov    -0x18(%rbp),%rax
    163c:	48 8d 48 21          	lea    0x21(%rax),%rcx
    1640:	48 8b 45 f0          	mov    -0x10(%rbp),%rax
    1644:	48 89 c6             	mov    %rax,%rsi
    1647:	48 89 cf             	mov    %rcx,%rdi
    164a:	e8 d1 fa ff ff       	call   1120 <strncpy@plt>
    164f:	eb 44                	jmp    1695 <map_words+0x1db>
    1651:	48 8b 45 f0          	mov    -0x10(%rbp),%rax
    1655:	48 89 c7             	mov    %rax,%rdi
    1658:	e8 f3 fa ff ff       	call   1150 <strlen@plt>
    165d:	48 89 c6             	mov    %rax,%rsi
    1660:	0f be 45 fc          	movsbl -0x4(%rbp),%eax
    1664:	83 e8 05             	sub    $0x5,%eax
    1667:	48 63 d0             	movslq %eax,%rdx
    166a:	48 89 d0             	mov    %rdx,%rax
    166d:	48 01 c0             	add    %rax,%rax
    1670:	48 01 d0             	add    %rdx,%rax
    1673:	48 8d 50 20          	lea    0x20(%rax),%rdx
    1677:	48 8b 45 e8          	mov    -0x18(%rbp),%rax
    167b:	48 01 d0             	add    %rdx,%rax
    167e:	48 8d 48 06          	lea    0x6(%rax),%rcx
    1682:	48 8b 45 f0          	mov    -0x10(%rbp),%rax
    1686:	48 89 f2             	mov    %rsi,%rdx
    1689:	48 89 c6             	mov    %rax,%rsi
    168c:	48 89 cf             	mov    %rcx,%rdi
    168f:	e8 8c fa ff ff       	call   1120 <strncpy@plt>
    1694:	90                   	nop
    1695:	b8 00 00 00 00       	mov    $0x0,%eax
    169a:	c9                   	leave  
    169b:	c3                   	ret    

000000000000169c <rollnum_fail>:
    169c:	f3 0f 1e fa          	endbr64 
    16a0:	55                   	push   %rbp
    16a1:	48 89 e5             	mov    %rsp,%rbp
    16a4:	48 83 ec 30          	sub    $0x30,%rsp
    16a8:	48 89 7d e8          	mov    %rdi,-0x18(%rbp)
    16ac:	48 89 75 e0          	mov    %rsi,-0x20(%rbp)
    16b0:	89 d0                	mov    %edx,%eax
    16b2:	88 45 dc             	mov    %al,-0x24(%rbp)
    16b5:	c6 45 ff 00          	movb   $0x0,-0x1(%rbp)
    16b9:	eb 4c                	jmp    1707 <rollnum_fail+0x6b>
    16bb:	0f b6 45 ff          	movzbl -0x1(%rbp),%eax
    16bf:	48 63 d0             	movslq %eax,%rdx
    16c2:	48 89 d0             	mov    %rdx,%rax
    16c5:	48 01 c0             	add    %rax,%rax
    16c8:	48 01 d0             	add    %rdx,%rax
    16cb:	48 c1 e0 02          	shl    $0x2,%rax
    16cf:	48 01 d0             	add    %rdx,%rax
    16d2:	48 c1 e0 02          	shl    $0x2,%rax
    16d6:	48 01 d0             	add    %rdx,%rax
    16d9:	48 8d 15 60 39 00 00 	lea    0x3960(%rip),%rdx        # 5040 <students>
    16e0:	48 01 c2             	add    %rax,%rdx
    16e3:	48 8b 45 e8          	mov    -0x18(%rbp),%rax
    16e7:	48 89 d6             	mov    %rdx,%rsi
    16ea:	48 89 c7             	mov    %rax,%rdi
    16ed:	e8 ae fa ff ff       	call   11a0 <strcmp@plt>
    16f2:	85 c0                	test   %eax,%eax
    16f4:	75 07                	jne    16fd <rollnum_fail+0x61>
    16f6:	b8 01 00 00 00       	mov    $0x1,%eax
    16fb:	eb 1b                	jmp    1718 <rollnum_fail+0x7c>
    16fd:	0f b6 45 ff          	movzbl -0x1(%rbp),%eax
    1701:	83 c0 01             	add    $0x1,%eax
    1704:	88 45 ff             	mov    %al,-0x1(%rbp)
    1707:	0f b6 55 ff          	movzbl -0x1(%rbp),%edx
    170b:	0f be 45 dc          	movsbl -0x24(%rbp),%eax
    170f:	39 c2                	cmp    %eax,%edx
    1711:	7c a8                	jl     16bb <rollnum_fail+0x1f>
    1713:	b8 00 00 00 00       	mov    $0x0,%eax
    1718:	c9                   	leave  
    1719:	c3                   	ret    

000000000000171a <read_file>:
    171a:	f3 0f 1e fa          	endbr64 
    171e:	55                   	push   %rbp
    171f:	48 89 e5             	mov    %rsp,%rbp
    1722:	48 81 ec 40 01 00 00 	sub    $0x140,%rsp
    1729:	64 48 8b 04 25 28 00 	mov    %fs:0x28,%rax
    1730:	00 00 
    1732:	48 89 45 f8          	mov    %rax,-0x8(%rbp)
    1736:	31 c0                	xor    %eax,%eax
    1738:	48 c7 85 f0 fe ff ff 	movq   $0x0,-0x110(%rbp)
    173f:	00 00 00 00 
    1743:	48 c7 85 f8 fe ff ff 	movq   $0x0,-0x108(%rbp)
    174a:	00 00 00 00 
    174e:	48 c7 85 00 ff ff ff 	movq   $0x0,-0x100(%rbp)
    1755:	00 00 00 00 
    1759:	48 c7 85 08 ff ff ff 	movq   $0x0,-0xf8(%rbp)
    1760:	00 00 00 00 
    1764:	48 c7 85 10 ff ff ff 	movq   $0x0,-0xf0(%rbp)
    176b:	00 00 00 00 
    176f:	48 c7 85 18 ff ff ff 	movq   $0x0,-0xe8(%rbp)
    1776:	00 00 00 00 
    177a:	48 c7 85 20 ff ff ff 	movq   $0x0,-0xe0(%rbp)
    1781:	00 00 00 00 
    1785:	48 c7 85 28 ff ff ff 	movq   $0x0,-0xd8(%rbp)
    178c:	00 00 00 00 
    1790:	48 c7 85 30 ff ff ff 	movq   $0x0,-0xd0(%rbp)
    1797:	00 00 00 00 
    179b:	48 c7 85 38 ff ff ff 	movq   $0x0,-0xc8(%rbp)
    17a2:	00 00 00 00 
    17a6:	48 c7 85 40 ff ff ff 	movq   $0x0,-0xc0(%rbp)
    17ad:	00 00 00 00 
    17b1:	48 c7 85 48 ff ff ff 	movq   $0x0,-0xb8(%rbp)
    17b8:	00 00 00 00 
    17bc:	48 c7 85 50 ff ff ff 	movq   $0x0,-0xb0(%rbp)
    17c3:	00 00 00 00 
    17c7:	48 c7 85 58 ff ff ff 	movq   $0x0,-0xa8(%rbp)
    17ce:	00 00 00 00 
    17d2:	48 c7 85 60 ff ff ff 	movq   $0x0,-0xa0(%rbp)
    17d9:	00 00 00 00 
    17dd:	48 c7 85 68 ff ff ff 	movq   $0x0,-0x98(%rbp)
    17e4:	00 00 00 00 
    17e8:	48 c7 85 70 ff ff ff 	movq   $0x0,-0x90(%rbp)
    17ef:	00 00 00 00 
    17f3:	48 c7 85 78 ff ff ff 	movq   $0x0,-0x88(%rbp)
    17fa:	00 00 00 00 
    17fe:	48 c7 45 80 00 00 00 	movq   $0x0,-0x80(%rbp)
    1805:	00 
    1806:	48 c7 45 88 00 00 00 	movq   $0x0,-0x78(%rbp)
    180d:	00 
    180e:	48 c7 45 90 00 00 00 	movq   $0x0,-0x70(%rbp)
    1815:	00 
    1816:	48 c7 45 98 00 00 00 	movq   $0x0,-0x68(%rbp)
    181d:	00 
    181e:	48 c7 45 a0 00 00 00 	movq   $0x0,-0x60(%rbp)
    1825:	00 
    1826:	48 c7 45 a8 00 00 00 	movq   $0x0,-0x58(%rbp)
    182d:	00 
    182e:	48 c7 45 b0 00 00 00 	movq   $0x0,-0x50(%rbp)
    1835:	00 
    1836:	48 c7 45 b8 00 00 00 	movq   $0x0,-0x48(%rbp)
    183d:	00 
    183e:	48 c7 45 c0 00 00 00 	movq   $0x0,-0x40(%rbp)
    1845:	00 
    1846:	48 c7 45 c8 00 00 00 	movq   $0x0,-0x38(%rbp)
    184d:	00 
    184e:	48 c7 45 d0 00 00 00 	movq   $0x0,-0x30(%rbp)
    1855:	00 
    1856:	48 c7 45 d8 00 00 00 	movq   $0x0,-0x28(%rbp)
    185d:	00 
    185e:	48 c7 45 e0 00 00 00 	movq   $0x0,-0x20(%rbp)
    1865:	00 
    1866:	48 c7 45 e8 00 00 00 	movq   $0x0,-0x18(%rbp)
    186d:	00 
    186e:	c6 85 c3 fe ff ff 00 	movb   $0x0,-0x13d(%rbp)
    1875:	c6 85 c4 fe ff ff 00 	movb   $0x0,-0x13c(%rbp)
    187c:	48 c7 85 d0 fe ff ff 	movq   $0x0,-0x130(%rbp)
    1883:	00 00 00 00 
    1887:	48 c7 85 d8 fe ff ff 	movq   $0x0,-0x128(%rbp)
    188e:	00 00 00 00 
    1892:	c7 85 e0 fe ff ff 00 	movl   $0x0,-0x120(%rbp)
    1899:	00 00 00 
    189c:	c6 85 c5 fe ff ff 00 	movb   $0x0,-0x13b(%rbp)
    18a3:	c6 85 c6 fe ff ff 01 	movb   $0x1,-0x13a(%rbp)
    18aa:	48 8d 35 17 1a 00 00 	lea    0x1a17(%rip),%rsi        # 32c8 <_IO_stdin_used+0x2c8>
    18b1:	48 8d 3d 12 1a 00 00 	lea    0x1a12(%rip),%rdi        # 32ca <_IO_stdin_used+0x2ca>
    18b8:	e8 03 f9 ff ff       	call   11c0 <fopen@plt>
    18bd:	48 89 85 c8 fe ff ff 	mov    %rax,-0x138(%rbp)
    18c4:	48 83 bd c8 fe ff ff 	cmpq   $0x0,-0x138(%rbp)
    18cb:	00 
    18cc:	0f 85 8a 01 00 00    	jne    1a5c <read_file+0x342>
    18d2:	48 8d 3d f1 19 00 00 	lea    0x19f1(%rip),%rdi        # 32ca <_IO_stdin_used+0x2ca>
    18d9:	e8 f2 f8 ff ff       	call   11d0 <perror@plt>
    18de:	e9 b4 01 00 00       	jmp    1a97 <read_file+0x37d>
    18e3:	0f b6 85 c3 fe ff ff 	movzbl -0x13d(%rbp),%eax
    18ea:	48 98                	cltq   
    18ec:	0f b6 84 05 f0 fe ff 	movzbl -0x110(%rbp,%rax,1),%eax
    18f3:	ff 
    18f4:	3c 20                	cmp    $0x20,%al
    18f6:	74 2f                	je     1927 <read_file+0x20d>
    18f8:	0f b6 b5 c3 fe ff ff 	movzbl -0x13d(%rbp),%esi
    18ff:	0f b6 85 c5 fe ff ff 	movzbl -0x13b(%rbp),%eax
    1906:	8d 50 01             	lea    0x1(%rax),%edx
    1909:	88 95 c5 fe ff ff    	mov    %dl,-0x13b(%rbp)
    190f:	0f b6 c8             	movzbl %al,%ecx
    1912:	48 63 c6             	movslq %esi,%rax
    1915:	0f b6 94 05 f0 fe ff 	movzbl -0x110(%rbp,%rax,1),%edx
    191c:	ff 
    191d:	48 63 c1             	movslq %ecx,%rax
    1920:	88 94 05 d0 fe ff ff 	mov    %dl,-0x130(%rbp,%rax,1)
    1927:	0f b6 85 c3 fe ff ff 	movzbl -0x13d(%rbp),%eax
    192e:	48 98                	cltq   
    1930:	0f b6 84 05 f0 fe ff 	movzbl -0x110(%rbp,%rax,1),%eax
    1937:	ff 
    1938:	3c 20                	cmp    $0x20,%al
    193a:	75 09                	jne    1945 <read_file+0x22b>
    193c:	80 bd c5 fe ff ff 00 	cmpb   $0x0,-0x13b(%rbp)
    1943:	75 29                	jne    196e <read_file+0x254>
    1945:	0f b6 85 c3 fe ff ff 	movzbl -0x13d(%rbp),%eax
    194c:	83 c0 01             	add    $0x1,%eax
    194f:	48 98                	cltq   
    1951:	0f b6 84 05 f0 fe ff 	movzbl -0x110(%rbp,%rax,1),%eax
    1958:	ff 
    1959:	3c 0a                	cmp    $0xa,%al
    195b:	0f 85 b4 00 00 00    	jne    1a15 <read_file+0x2fb>
    1961:	80 bd c5 fe ff ff 00 	cmpb   $0x0,-0x13b(%rbp)
    1968:	0f 84 a7 00 00 00    	je     1a15 <read_file+0x2fb>
    196e:	0f b6 85 c4 fe ff ff 	movzbl -0x13c(%rbp),%eax
    1975:	0f be c8             	movsbl %al,%ecx
    1978:	0f b6 85 c4 fe ff ff 	movzbl -0x13c(%rbp),%eax
    197f:	48 63 d0             	movslq %eax,%rdx
    1982:	48 89 d0             	mov    %rdx,%rax
    1985:	48 01 c0             	add    %rax,%rax
    1988:	48 01 d0             	add    %rdx,%rax
    198b:	48 c1 e0 02          	shl    $0x2,%rax
    198f:	48 01 d0             	add    %rdx,%rax
    1992:	48 c1 e0 02          	shl    $0x2,%rax
    1996:	48 01 d0             	add    %rdx,%rax
    1999:	48 8d 15 a0 36 00 00 	lea    0x36a0(%rip),%rdx        # 5040 <students>
    19a0:	48 01 c2             	add    %rax,%rdx
    19a3:	0f b6 85 c6 fe ff ff 	movzbl -0x13a(%rbp),%eax
    19aa:	0f be c0             	movsbl %al,%eax
    19ad:	48 8d b5 d0 fe ff ff 	lea    -0x130(%rbp),%rsi
    19b4:	89 c7                	mov    %eax,%edi
    19b6:	e8 ff fa ff ff       	call   14ba <map_words>
    19bb:	88 85 c7 fe ff ff    	mov    %al,-0x139(%rbp)
    19c1:	80 bd c7 fe ff ff 03 	cmpb   $0x3,-0x139(%rbp)
    19c8:	75 02                	jne    19cc <read_file+0x2b2>
    19ca:	eb 59                	jmp    1a25 <read_file+0x30b>
    19cc:	80 bd c7 fe ff ff 01 	cmpb   $0x1,-0x139(%rbp)
    19d3:	75 10                	jne    19e5 <read_file+0x2cb>
    19d5:	0f b6 85 c4 fe ff ff 	movzbl -0x13c(%rbp),%eax
    19dc:	83 e8 01             	sub    $0x1,%eax
    19df:	88 85 c4 fe ff ff    	mov    %al,-0x13c(%rbp)
    19e5:	48 8d 85 d0 fe ff ff 	lea    -0x130(%rbp),%rax
    19ec:	ba 14 00 00 00       	mov    $0x14,%edx
    19f1:	be 00 00 00 00       	mov    $0x0,%esi
    19f6:	48 89 c7             	mov    %rax,%rdi
    19f9:	e8 82 f7 ff ff       	call   1180 <memset@plt>
    19fe:	0f b6 85 c6 fe ff ff 	movzbl -0x13a(%rbp),%eax
    1a05:	83 c0 01             	add    $0x1,%eax
    1a08:	88 85 c6 fe ff ff    	mov    %al,-0x13a(%rbp)
    1a0e:	c6 85 c5 fe ff ff 00 	movb   $0x0,-0x13b(%rbp)
    1a15:	0f b6 85 c3 fe ff ff 	movzbl -0x13d(%rbp),%eax
    1a1c:	83 c0 01             	add    $0x1,%eax
    1a1f:	88 85 c3 fe ff ff    	mov    %al,-0x13d(%rbp)
    1a25:	0f b6 85 c3 fe ff ff 	movzbl -0x13d(%rbp),%eax
    1a2c:	48 98                	cltq   
    1a2e:	0f b6 84 05 f0 fe ff 	movzbl -0x110(%rbp,%rax,1),%eax
    1a35:	ff 
    1a36:	3c 0a                	cmp    $0xa,%al
    1a38:	0f 85 a5 fe ff ff    	jne    18e3 <read_file+0x1c9>
    1a3e:	c6 85 c6 fe ff ff 01 	movb   $0x1,-0x13a(%rbp)
    1a45:	c6 85 c3 fe ff ff 00 	movb   $0x0,-0x13d(%rbp)
    1a4c:	0f b6 85 c4 fe ff ff 	movzbl -0x13c(%rbp),%eax
    1a53:	83 c0 01             	add    $0x1,%eax
    1a56:	88 85 c4 fe ff ff    	mov    %al,-0x13c(%rbp)
    1a5c:	48 8b 95 c8 fe ff ff 	mov    -0x138(%rbp),%rdx
    1a63:	48 8d 85 f0 fe ff ff 	lea    -0x110(%rbp),%rax
    1a6a:	be 00 01 00 00       	mov    $0x100,%esi
    1a6f:	48 89 c7             	mov    %rax,%rdi
    1a72:	e8 19 f7 ff ff       	call   1190 <fgets@plt>
    1a77:	48 85 c0             	test   %rax,%rax
    1a7a:	75 a9                	jne    1a25 <read_file+0x30b>
    1a7c:	48 8b 85 c8 fe ff ff 	mov    -0x138(%rbp),%rax
    1a83:	48 89 c7             	mov    %rax,%rdi
    1a86:	e8 b5 f6 ff ff       	call   1140 <fclose@plt>
    1a8b:	48 8d 3d 46 18 00 00 	lea    0x1846(%rip),%rdi        # 32d8 <_IO_stdin_used+0x2d8>
    1a92:	e8 99 f6 ff ff       	call   1130 <puts@plt>
    1a97:	48 8b 45 f8          	mov    -0x8(%rbp),%rax
    1a9b:	64 48 33 04 25 28 00 	xor    %fs:0x28,%rax
    1aa2:	00 00 
    1aa4:	74 05                	je     1aab <read_file+0x391>
    1aa6:	e8 b5 f6 ff ff       	call   1160 <__stack_chk_fail@plt>
    1aab:	c9                   	leave  
    1aac:	c3                   	ret    

0000000000001aad <read_manual>:
    1aad:	f3 0f 1e fa          	endbr64 
    1ab1:	55                   	push   %rbp
    1ab2:	48 89 e5             	mov    %rsp,%rbp
    1ab5:	48 81 ec 40 01 00 00 	sub    $0x140,%rsp
    1abc:	64 48 8b 04 25 28 00 	mov    %fs:0x28,%rax
    1ac3:	00 00 
    1ac5:	48 89 45 f8          	mov    %rax,-0x8(%rbp)
    1ac9:	31 c0                	xor    %eax,%eax
    1acb:	48 c7 85 f0 fe ff ff 	movq   $0x0,-0x110(%rbp)
    1ad2:	00 00 00 00 
    1ad6:	48 c7 85 f8 fe ff ff 	movq   $0x0,-0x108(%rbp)
    1add:	00 00 00 00 
    1ae1:	48 c7 85 00 ff ff ff 	movq   $0x0,-0x100(%rbp)
    1ae8:	00 00 00 00 
    1aec:	48 c7 85 08 ff ff ff 	movq   $0x0,-0xf8(%rbp)
    1af3:	00 00 00 00 
    1af7:	48 c7 85 10 ff ff ff 	movq   $0x0,-0xf0(%rbp)
    1afe:	00 00 00 00 
    1b02:	48 c7 85 18 ff ff ff 	movq   $0x0,-0xe8(%rbp)
    1b09:	00 00 00 00 
    1b0d:	48 c7 85 20 ff ff ff 	movq   $0x0,-0xe0(%rbp)
    1b14:	00 00 00 00 
    1b18:	48 c7 85 28 ff ff ff 	movq   $0x0,-0xd8(%rbp)
    1b1f:	00 00 00 00 
    1b23:	48 c7 85 30 ff ff ff 	movq   $0x0,-0xd0(%rbp)
    1b2a:	00 00 00 00 
    1b2e:	48 c7 85 38 ff ff ff 	movq   $0x0,-0xc8(%rbp)
    1b35:	00 00 00 00 
    1b39:	48 c7 85 40 ff ff ff 	movq   $0x0,-0xc0(%rbp)
    1b40:	00 00 00 00 
    1b44:	48 c7 85 48 ff ff ff 	movq   $0x0,-0xb8(%rbp)
    1b4b:	00 00 00 00 
    1b4f:	48 c7 85 50 ff ff ff 	movq   $0x0,-0xb0(%rbp)
    1b56:	00 00 00 00 
    1b5a:	48 c7 85 58 ff ff ff 	movq   $0x0,-0xa8(%rbp)
    1b61:	00 00 00 00 
    1b65:	48 c7 85 60 ff ff ff 	movq   $0x0,-0xa0(%rbp)
    1b6c:	00 00 00 00 
    1b70:	48 c7 85 68 ff ff ff 	movq   $0x0,-0x98(%rbp)
    1b77:	00 00 00 00 
    1b7b:	48 c7 85 70 ff ff ff 	movq   $0x0,-0x90(%rbp)
    1b82:	00 00 00 00 
    1b86:	48 c7 85 78 ff ff ff 	movq   $0x0,-0x88(%rbp)
    1b8d:	00 00 00 00 
    1b91:	48 c7 45 80 00 00 00 	movq   $0x0,-0x80(%rbp)
    1b98:	00 
    1b99:	48 c7 45 88 00 00 00 	movq   $0x0,-0x78(%rbp)
    1ba0:	00 
    1ba1:	48 c7 45 90 00 00 00 	movq   $0x0,-0x70(%rbp)
    1ba8:	00 
    1ba9:	48 c7 45 98 00 00 00 	movq   $0x0,-0x68(%rbp)
    1bb0:	00 
    1bb1:	48 c7 45 a0 00 00 00 	movq   $0x0,-0x60(%rbp)
    1bb8:	00 
    1bb9:	48 c7 45 a8 00 00 00 	movq   $0x0,-0x58(%rbp)
    1bc0:	00 
    1bc1:	48 c7 45 b0 00 00 00 	movq   $0x0,-0x50(%rbp)
    1bc8:	00 
    1bc9:	48 c7 45 b8 00 00 00 	movq   $0x0,-0x48(%rbp)
    1bd0:	00 
    1bd1:	48 c7 45 c0 00 00 00 	movq   $0x0,-0x40(%rbp)
    1bd8:	00 
    1bd9:	48 c7 45 c8 00 00 00 	movq   $0x0,-0x38(%rbp)
    1be0:	00 
    1be1:	48 c7 45 d0 00 00 00 	movq   $0x0,-0x30(%rbp)
    1be8:	00 
    1be9:	48 c7 45 d8 00 00 00 	movq   $0x0,-0x28(%rbp)
    1bf0:	00 
    1bf1:	48 c7 45 e0 00 00 00 	movq   $0x0,-0x20(%rbp)
    1bf8:	00 
    1bf9:	48 c7 45 e8 00 00 00 	movq   $0x0,-0x18(%rbp)
    1c00:	00 
    1c01:	c6 85 cc fe ff ff 00 	movb   $0x0,-0x134(%rbp)
    1c08:	48 c7 85 d0 fe ff ff 	movq   $0x0,-0x130(%rbp)
    1c0f:	00 00 00 00 
    1c13:	48 c7 85 d8 fe ff ff 	movq   $0x0,-0x128(%rbp)
    1c1a:	00 00 00 00 
    1c1e:	c7 85 e0 fe ff ff 00 	movl   $0x0,-0x120(%rbp)
    1c25:	00 00 00 
    1c28:	c6 85 cd fe ff ff 00 	movb   $0x0,-0x133(%rbp)
    1c2f:	c6 85 ce fe ff ff 01 	movb   $0x1,-0x132(%rbp)
    1c36:	0f b6 05 ec 33 00 00 	movzbl 0x33ec(%rip),%eax        # 5029 <line_order.3092>
    1c3d:	3c 09                	cmp    $0x9,%al
    1c3f:	76 16                	jbe    1c57 <read_manual+0x1aa>
    1c41:	48 8d 3d b4 16 00 00 	lea    0x16b4(%rip),%rdi        # 32fc <_IO_stdin_used+0x2fc>
    1c48:	b8 00 00 00 00       	mov    $0x0,%eax
    1c4d:	e8 1e f5 ff ff       	call   1170 <printf@plt>
    1c52:	e9 9a 01 00 00       	jmp    1df1 <read_manual+0x344>
    1c57:	48 8b 15 c2 33 00 00 	mov    0x33c2(%rip),%rdx        # 5020 <stdin@@GLIBC_2.2.5>
    1c5e:	48 8d 85 f0 fe ff ff 	lea    -0x110(%rbp),%rax
    1c65:	be 00 01 00 00       	mov    $0x100,%esi
    1c6a:	48 89 c7             	mov    %rax,%rdi
    1c6d:	e8 1e f5 ff ff       	call   1190 <fgets@plt>
    1c72:	e9 45 01 00 00       	jmp    1dbc <read_manual+0x30f>
    1c77:	0f b6 85 cc fe ff ff 	movzbl -0x134(%rbp),%eax
    1c7e:	48 98                	cltq   
    1c80:	0f b6 84 05 f0 fe ff 	movzbl -0x110(%rbp,%rax,1),%eax
    1c87:	ff 
    1c88:	3c 20                	cmp    $0x20,%al
    1c8a:	74 2f                	je     1cbb <read_manual+0x20e>
    1c8c:	0f b6 b5 cc fe ff ff 	movzbl -0x134(%rbp),%esi
    1c93:	0f b6 85 cd fe ff ff 	movzbl -0x133(%rbp),%eax
    1c9a:	8d 50 01             	lea    0x1(%rax),%edx
    1c9d:	88 95 cd fe ff ff    	mov    %dl,-0x133(%rbp)
    1ca3:	0f b6 c8             	movzbl %al,%ecx
    1ca6:	48 63 c6             	movslq %esi,%rax
    1ca9:	0f b6 94 05 f0 fe ff 	movzbl -0x110(%rbp,%rax,1),%edx
    1cb0:	ff 
    1cb1:	48 63 c1             	movslq %ecx,%rax
    1cb4:	88 94 05 d0 fe ff ff 	mov    %dl,-0x130(%rbp,%rax,1)
    1cbb:	0f b6 85 cc fe ff ff 	movzbl -0x134(%rbp),%eax
    1cc2:	48 98                	cltq   
    1cc4:	0f b6 84 05 f0 fe ff 	movzbl -0x110(%rbp,%rax,1),%eax
    1ccb:	ff 
    1ccc:	3c 20                	cmp    $0x20,%al
    1cce:	75 09                	jne    1cd9 <read_manual+0x22c>
    1cd0:	80 bd cd fe ff ff 00 	cmpb   $0x0,-0x133(%rbp)
    1cd7:	75 29                	jne    1d02 <read_manual+0x255>
    1cd9:	0f b6 85 cc fe ff ff 	movzbl -0x134(%rbp),%eax
    1ce0:	83 c0 01             	add    $0x1,%eax
    1ce3:	48 98                	cltq   
    1ce5:	0f b6 84 05 f0 fe ff 	movzbl -0x110(%rbp,%rax,1),%eax
    1cec:	ff 
    1ced:	3c 0a                	cmp    $0xa,%al
    1cef:	0f 85 b7 00 00 00    	jne    1dac <read_manual+0x2ff>
    1cf5:	80 bd cd fe ff ff 00 	cmpb   $0x0,-0x133(%rbp)
    1cfc:	0f 84 aa 00 00 00    	je     1dac <read_manual+0x2ff>
    1d02:	0f b6 05 20 33 00 00 	movzbl 0x3320(%rip),%eax        # 5029 <line_order.3092>
    1d09:	0f be c8             	movsbl %al,%ecx
    1d0c:	0f b6 05 16 33 00 00 	movzbl 0x3316(%rip),%eax        # 5029 <line_order.3092>
    1d13:	0f b6 c0             	movzbl %al,%eax
    1d16:	48 63 d0             	movslq %eax,%rdx
    1d19:	48 89 d0             	mov    %rdx,%rax
    1d1c:	48 01 c0             	add    %rax,%rax
    1d1f:	48 01 d0             	add    %rdx,%rax
    1d22:	48 c1 e0 02          	shl    $0x2,%rax
    1d26:	48 01 d0             	add    %rdx,%rax
    1d29:	48 c1 e0 02          	shl    $0x2,%rax
    1d2d:	48 01 d0             	add    %rdx,%rax
    1d30:	48 8d 15 09 33 00 00 	lea    0x3309(%rip),%rdx        # 5040 <students>
    1d37:	48 01 c2             	add    %rax,%rdx
    1d3a:	0f b6 85 ce fe ff ff 	movzbl -0x132(%rbp),%eax
    1d41:	0f be c0             	movsbl %al,%eax
    1d44:	48 8d b5 d0 fe ff ff 	lea    -0x130(%rbp),%rsi
    1d4b:	89 c7                	mov    %eax,%edi
    1d4d:	e8 68 f7 ff ff       	call   14ba <map_words>
    1d52:	88 85 cf fe ff ff    	mov    %al,-0x131(%rbp)
    1d58:	80 bd cf fe ff ff 03 	cmpb   $0x3,-0x131(%rbp)
    1d5f:	75 02                	jne    1d63 <read_manual+0x2b6>
    1d61:	eb 59                	jmp    1dbc <read_manual+0x30f>
    1d63:	80 bd cf fe ff ff 01 	cmpb   $0x1,-0x131(%rbp)
    1d6a:	75 10                	jne    1d7c <read_manual+0x2cf>
    1d6c:	0f b6 05 b6 32 00 00 	movzbl 0x32b6(%rip),%eax        # 5029 <line_order.3092>
    1d73:	83 e8 01             	sub    $0x1,%eax
    1d76:	88 05 ad 32 00 00    	mov    %al,0x32ad(%rip)        # 5029 <line_order.3092>
    1d7c:	48 8d 85 d0 fe ff ff 	lea    -0x130(%rbp),%rax
    1d83:	ba 14 00 00 00       	mov    $0x14,%edx
    1d88:	be 00 00 00 00       	mov    $0x0,%esi
    1d8d:	48 89 c7             	mov    %rax,%rdi
    1d90:	e8 eb f3 ff ff       	call   1180 <memset@plt>
    1d95:	0f b6 85 ce fe ff ff 	movzbl -0x132(%rbp),%eax
    1d9c:	83 c0 01             	add    $0x1,%eax
    1d9f:	88 85 ce fe ff ff    	mov    %al,-0x132(%rbp)
    1da5:	c6 85 cd fe ff ff 00 	movb   $0x0,-0x133(%rbp)
    1dac:	0f b6 85 cc fe ff ff 	movzbl -0x134(%rbp),%eax
    1db3:	83 c0 01             	add    $0x1,%eax
    1db6:	88 85 cc fe ff ff    	mov    %al,-0x134(%rbp)
    1dbc:	0f b6 85 cc fe ff ff 	movzbl -0x134(%rbp),%eax
    1dc3:	48 98                	cltq   
    1dc5:	0f b6 84 05 f0 fe ff 	movzbl -0x110(%rbp,%rax,1),%eax
    1dcc:	ff 
    1dcd:	3c 0a                	cmp    $0xa,%al
    1dcf:	0f 85 a2 fe ff ff    	jne    1c77 <read_manual+0x1ca>
    1dd5:	0f b6 05 4d 32 00 00 	movzbl 0x324d(%rip),%eax        # 5029 <line_order.3092>
    1ddc:	83 c0 01             	add    $0x1,%eax
    1ddf:	88 05 44 32 00 00    	mov    %al,0x3244(%rip)        # 5029 <line_order.3092>
    1de5:	48 8d 3d ec 14 00 00 	lea    0x14ec(%rip),%rdi        # 32d8 <_IO_stdin_used+0x2d8>
    1dec:	e8 3f f3 ff ff       	call   1130 <puts@plt>
    1df1:	48 8b 45 f8          	mov    -0x8(%rbp),%rax
    1df5:	64 48 33 04 25 28 00 	xor    %fs:0x28,%rax
    1dfc:	00 00 
    1dfe:	74 05                	je     1e05 <read_manual+0x358>
    1e00:	e8 5b f3 ff ff       	call   1160 <__stack_chk_fail@plt>
    1e05:	c9                   	leave  
    1e06:	c3                   	ret    

0000000000001e07 <find_rollnum>:
    1e07:	f3 0f 1e fa          	endbr64 
    1e0b:	55                   	push   %rbp
    1e0c:	48 89 e5             	mov    %rsp,%rbp
    1e0f:	90                   	nop
    1e10:	5d                   	pop    %rbp
    1e11:	c3                   	ret    

0000000000001e12 <find_firstname>:
    1e12:	f3 0f 1e fa          	endbr64 
    1e16:	55                   	push   %rbp
    1e17:	48 89 e5             	mov    %rsp,%rbp
    1e1a:	90                   	nop
    1e1b:	5d                   	pop    %rbp
    1e1c:	c3                   	ret    

0000000000001e1d <find_coureid>:
    1e1d:	f3 0f 1e fa          	endbr64 
    1e21:	55                   	push   %rbp
    1e22:	48 89 e5             	mov    %rsp,%rbp
    1e25:	90                   	nop
    1e26:	5d                   	pop    %rbp
    1e27:	c3                   	ret    

0000000000001e28 <totalnum_student>:
    1e28:	f3 0f 1e fa          	endbr64 
    1e2c:	55                   	push   %rbp
    1e2d:	48 89 e5             	mov    %rsp,%rbp
    1e30:	48 83 ec 10          	sub    $0x10,%rsp
    1e34:	c6 45 ff 00          	movb   $0x0,-0x1(%rbp)
    1e38:	eb 0a                	jmp    1e44 <totalnum_student+0x1c>
    1e3a:	0f b6 45 ff          	movzbl -0x1(%rbp),%eax
    1e3e:	83 c0 01             	add    $0x1,%eax
    1e41:	88 45 ff             	mov    %al,-0x1(%rbp)
    1e44:	0f b6 45 ff          	movzbl -0x1(%rbp),%eax
    1e48:	0f b6 c0             	movzbl %al,%eax
    1e4b:	48 63 d0             	movslq %eax,%rdx
    1e4e:	48 89 d0             	mov    %rdx,%rax
    1e51:	48 01 c0             	add    %rax,%rax
    1e54:	48 01 d0             	add    %rdx,%rax
    1e57:	48 c1 e0 02          	shl    $0x2,%rax
    1e5b:	48 01 d0             	add    %rdx,%rax
    1e5e:	48 c1 e0 02          	shl    $0x2,%rax
    1e62:	48 01 d0             	add    %rdx,%rax
    1e65:	48 8d 15 d4 31 00 00 	lea    0x31d4(%rip),%rdx        # 5040 <students>
    1e6c:	48 01 d0             	add    %rdx,%rax
    1e6f:	48 89 c7             	mov    %rax,%rdi
    1e72:	e8 69 f3 ff ff       	call   11e0 <atoi@plt>
    1e77:	85 c0                	test   %eax,%eax
    1e79:	75 bf                	jne    1e3a <totalnum_student+0x12>
    1e7b:	0f b6 45 ff          	movzbl -0x1(%rbp),%eax
    1e7f:	0f b6 c0             	movzbl %al,%eax
    1e82:	89 c6                	mov    %eax,%esi
    1e84:	48 8d 3d 85 14 00 00 	lea    0x1485(%rip),%rdi        # 3310 <_IO_stdin_used+0x310>
    1e8b:	b8 00 00 00 00       	mov    $0x0,%eax
    1e90:	e8 db f2 ff ff       	call   1170 <printf@plt>
    1e95:	90                   	nop
    1e96:	c9                   	leave  
    1e97:	c3                   	ret    

0000000000001e98 <delete_rollnum>:
    1e98:	f3 0f 1e fa          	endbr64 
    1e9c:	55                   	push   %rbp
    1e9d:	48 89 e5             	mov    %rsp,%rbp
    1ea0:	90                   	nop
    1ea1:	5d                   	pop    %rbp
    1ea2:	c3                   	ret    

0000000000001ea3 <update_rollnum>:
    1ea3:	f3 0f 1e fa          	endbr64 
    1ea7:	55                   	push   %rbp
    1ea8:	48 89 e5             	mov    %rsp,%rbp
    1eab:	90                   	nop
    1eac:	5d                   	pop    %rbp
    1ead:	c3                   	ret    

0000000000001eae <show_all>:
    1eae:	f3 0f 1e fa          	endbr64 
    1eb2:	55                   	push   %rbp
    1eb3:	48 89 e5             	mov    %rsp,%rbp
    1eb6:	48 83 ec 10          	sub    $0x10,%rsp
    1eba:	c6 45 ff 00          	movb   $0x0,-0x1(%rbp)
    1ebe:	0f b6 45 ff          	movzbl -0x1(%rbp),%eax
    1ec2:	48 63 d0             	movslq %eax,%rdx
    1ec5:	48 89 d0             	mov    %rdx,%rax
    1ec8:	48 01 c0             	add    %rax,%rax
    1ecb:	48 01 d0             	add    %rdx,%rax
    1ece:	48 c1 e0 02          	shl    $0x2,%rax
    1ed2:	48 01 d0             	add    %rdx,%rax
    1ed5:	48 c1 e0 02          	shl    $0x2,%rax
    1ed9:	48 01 d0             	add    %rdx,%rax
    1edc:	48 8d 15 5d 31 00 00 	lea    0x315d(%rip),%rdx        # 5040 <students>
    1ee3:	48 8d 34 10          	lea    (%rax,%rdx,1),%rsi
    1ee7:	0f b6 45 ff          	movzbl -0x1(%rbp),%eax
    1eeb:	48 63 d0             	movslq %eax,%rdx
    1eee:	48 89 d0             	mov    %rdx,%rax
    1ef1:	48 01 c0             	add    %rax,%rax
    1ef4:	48 01 d0             	add    %rdx,%rax
    1ef7:	48 c1 e0 02          	shl    $0x2,%rax
    1efb:	48 01 d0             	add    %rdx,%rax
    1efe:	48 c1 e0 02          	shl    $0x2,%rax
    1f02:	48 01 d0             	add    %rdx,%rax
    1f05:	48 8d 50 10          	lea    0x10(%rax),%rdx
    1f09:	48 8d 05 30 31 00 00 	lea    0x3130(%rip),%rax        # 5040 <students>
    1f10:	48 01 d0             	add    %rdx,%rax
    1f13:	48 8d 48 02          	lea    0x2(%rax),%rcx
    1f17:	0f b6 45 ff          	movzbl -0x1(%rbp),%eax
    1f1b:	48 63 d0             	movslq %eax,%rdx
    1f1e:	48 89 d0             	mov    %rdx,%rax
    1f21:	48 01 c0             	add    %rax,%rax
    1f24:	48 01 d0             	add    %rdx,%rax
    1f27:	48 c1 e0 02          	shl    $0x2,%rax
    1f2b:	48 01 d0             	add    %rdx,%rax
    1f2e:	48 c1 e0 02          	shl    $0x2,%rax
    1f32:	48 01 d0             	add    %rdx,%rax
    1f35:	48 8d 15 04 31 00 00 	lea    0x3104(%rip),%rdx        # 5040 <students>
    1f3c:	48 01 d0             	add    %rdx,%rax
    1f3f:	48 8d 50 03          	lea    0x3(%rax),%rdx
    1f43:	0f b6 45 ff          	movzbl -0x1(%rbp),%eax
    1f47:	83 c0 01             	add    $0x1,%eax
    1f4a:	49 89 f0             	mov    %rsi,%r8
    1f4d:	89 c6                	mov    %eax,%esi
    1f4f:	48 8d 3d e2 13 00 00 	lea    0x13e2(%rip),%rdi        # 3338 <_IO_stdin_used+0x338>
    1f56:	b8 00 00 00 00       	mov    $0x0,%eax
    1f5b:	e8 10 f2 ff ff       	call   1170 <printf@plt>
    1f60:	0f b6 45 ff          	movzbl -0x1(%rbp),%eax
    1f64:	48 63 d0             	movslq %eax,%rdx
    1f67:	48 89 d0             	mov    %rdx,%rax
    1f6a:	48 01 c0             	add    %rax,%rax
    1f6d:	48 01 d0             	add    %rdx,%rax
    1f70:	48 c1 e0 02          	shl    $0x2,%rax
    1f74:	48 01 d0             	add    %rdx,%rax
    1f77:	48 c1 e0 02          	shl    $0x2,%rax
    1f7b:	48 01 d0             	add    %rdx,%rax
    1f7e:	48 8d 50 2c          	lea    0x2c(%rax),%rdx
    1f82:	48 8d 05 b7 30 00 00 	lea    0x30b7(%rip),%rax        # 5040 <students>
    1f89:	48 01 d0             	add    %rdx,%rax
    1f8c:	4c 8d 40 06          	lea    0x6(%rax),%r8
    1f90:	0f b6 45 ff          	movzbl -0x1(%rbp),%eax
    1f94:	48 63 d0             	movslq %eax,%rdx
    1f97:	48 89 d0             	mov    %rdx,%rax
    1f9a:	48 01 c0             	add    %rax,%rax
    1f9d:	48 01 d0             	add    %rdx,%rax
    1fa0:	48 c1 e0 02          	shl    $0x2,%rax
    1fa4:	48 01 d0             	add    %rdx,%rax
    1fa7:	48 c1 e0 02          	shl    $0x2,%rax
    1fab:	48 01 d0             	add    %rdx,%rax
    1fae:	48 8d 50 29          	lea    0x29(%rax),%rdx
    1fb2:	48 8d 05 87 30 00 00 	lea    0x3087(%rip),%rax        # 5040 <students>
    1fb9:	48 01 d0             	add    %rdx,%rax
    1fbc:	48 8d 78 06          	lea    0x6(%rax),%rdi
    1fc0:	0f b6 45 ff          	movzbl -0x1(%rbp),%eax
    1fc4:	48 63 d0             	movslq %eax,%rdx
    1fc7:	48 89 d0             	mov    %rdx,%rax
    1fca:	48 01 c0             	add    %rax,%rax
    1fcd:	48 01 d0             	add    %rdx,%rax
    1fd0:	48 c1 e0 02          	shl    $0x2,%rax
    1fd4:	48 01 d0             	add    %rdx,%rax
    1fd7:	48 c1 e0 02          	shl    $0x2,%rax
    1fdb:	48 01 d0             	add    %rdx,%rax
    1fde:	48 8d 50 26          	lea    0x26(%rax),%rdx
    1fe2:	48 8d 05 57 30 00 00 	lea    0x3057(%rip),%rax        # 5040 <students>
    1fe9:	48 01 d0             	add    %rdx,%rax
    1fec:	48 8d 48 06          	lea    0x6(%rax),%rcx
    1ff0:	0f b6 45 ff          	movzbl -0x1(%rbp),%eax
    1ff4:	48 63 d0             	movslq %eax,%rdx
    1ff7:	48 89 d0             	mov    %rdx,%rax
    1ffa:	48 01 c0             	add    %rax,%rax
    1ffd:	48 01 d0             	add    %rdx,%rax
    2000:	48 c1 e0 02          	shl    $0x2,%rax
    2004:	48 01 d0             	add    %rdx,%rax
    2007:	48 c1 e0 02          	shl    $0x2,%rax
    200b:	48 01 d0             	add    %rdx,%rax
    200e:	48 8d 50 23          	lea    0x23(%rax),%rdx
    2012:	48 8d 05 27 30 00 00 	lea    0x3027(%rip),%rax        # 5040 <students>
    2019:	48 01 d0             	add    %rdx,%rax
    201c:	48 8d 70 06          	lea    0x6(%rax),%rsi
    2020:	0f b6 45 ff          	movzbl -0x1(%rbp),%eax
    2024:	48 63 d0             	movslq %eax,%rdx
    2027:	48 89 d0             	mov    %rdx,%rax
    202a:	48 01 c0             	add    %rax,%rax
    202d:	48 01 d0             	add    %rdx,%rax
    2030:	48 c1 e0 02          	shl    $0x2,%rax
    2034:	48 01 d0             	add    %rdx,%rax
    2037:	48 c1 e0 02          	shl    $0x2,%rax
    203b:	48 01 d0             	add    %rdx,%rax
    203e:	48 8d 50 20          	lea    0x20(%rax),%rdx
    2042:	48 8d 05 f7 2f 00 00 	lea    0x2ff7(%rip),%rax        # 5040 <students>
    2049:	48 01 d0             	add    %rdx,%rax
    204c:	48 83 c0 06          	add    $0x6,%rax
    2050:	4d 89 c1             	mov    %r8,%r9
    2053:	49 89 f8             	mov    %rdi,%r8
    2056:	48 89 f2             	mov    %rsi,%rdx
    2059:	48 89 c6             	mov    %rax,%rsi
    205c:	48 8d 3d 04 13 00 00 	lea    0x1304(%rip),%rdi        # 3367 <_IO_stdin_used+0x367>
    2063:	b8 00 00 00 00       	mov    $0x0,%eax
    2068:	e8 03 f1 ff ff       	call   1170 <printf@plt>
    206d:	0f b6 45 ff          	movzbl -0x1(%rbp),%eax
    2071:	83 c0 01             	add    $0x1,%eax
    2074:	88 45 ff             	mov    %al,-0x1(%rbp)
    2077:	0f b6 45 ff          	movzbl -0x1(%rbp),%eax
    207b:	48 63 d0             	movslq %eax,%rdx
    207e:	48 89 d0             	mov    %rdx,%rax
    2081:	48 01 c0             	add    %rax,%rax
    2084:	48 01 d0             	add    %rdx,%rax
    2087:	48 c1 e0 02          	shl    $0x2,%rax
    208b:	48 01 d0             	add    %rdx,%rax
    208e:	48 c1 e0 02          	shl    $0x2,%rax
    2092:	48 01 d0             	add    %rdx,%rax
    2095:	48 8d 15 a4 2f 00 00 	lea    0x2fa4(%rip),%rdx        # 5040 <students>
    209c:	48 01 d0             	add    %rdx,%rax
    209f:	48 89 c7             	mov    %rax,%rdi
    20a2:	e8 39 f1 ff ff       	call   11e0 <atoi@plt>
    20a7:	85 c0                	test   %eax,%eax
    20a9:	0f 85 0f fe ff ff    	jne    1ebe <show_all+0x10>
    20af:	90                   	nop
    20b0:	90                   	nop
    20b1:	c9                   	leave  
    20b2:	c3                   	ret    

00000000000020b3 <exit_all>:
    20b3:	f3 0f 1e fa          	endbr64 
    20b7:	55                   	push   %rbp
    20b8:	48 89 e5             	mov    %rsp,%rbp
    20bb:	48 8d 3d b5 12 00 00 	lea    0x12b5(%rip),%rdi        # 3377 <_IO_stdin_used+0x377>
    20c2:	b8 00 00 00 00       	mov    $0x0,%eax
    20c7:	e8 a4 f0 ff ff       	call   1170 <printf@plt>
    20cc:	bf 00 00 00 00       	mov    $0x0,%edi
    20d1:	e8 1a f1 ff ff       	call   11f0 <exit@plt>
    20d6:	66 2e 0f 1f 84 00 00 	cs nopw 0x0(%rax,%rax,1)
    20dd:	00 00 00 

00000000000020e0 <__libc_csu_init>:
    20e0:	f3 0f 1e fa          	endbr64 
    20e4:	41 57                	push   %r15
    20e6:	4c 8d 3d 03 2c 00 00 	lea    0x2c03(%rip),%r15        # 4cf0 <__frame_dummy_init_array_entry>
    20ed:	41 56                	push   %r14
    20ef:	49 89 d6             	mov    %rdx,%r14
    20f2:	41 55                	push   %r13
    20f4:	49 89 f5             	mov    %rsi,%r13
    20f7:	41 54                	push   %r12
    20f9:	41 89 fc             	mov    %edi,%r12d
    20fc:	55                   	push   %rbp
    20fd:	48 8d 2d f4 2b 00 00 	lea    0x2bf4(%rip),%rbp        # 4cf8 <__do_global_dtors_aux_fini_array_entry>
    2104:	53                   	push   %rbx
    2105:	4c 29 fd             	sub    %r15,%rbp
    2108:	48 83 ec 08          	sub    $0x8,%rsp
    210c:	e8 ef ee ff ff       	call   1000 <_init>
    2111:	48 c1 fd 03          	sar    $0x3,%rbp
    2115:	74 1f                	je     2136 <__libc_csu_init+0x56>
    2117:	31 db                	xor    %ebx,%ebx
    2119:	0f 1f 80 00 00 00 00 	nopl   0x0(%rax)
    2120:	4c 89 f2             	mov    %r14,%rdx
    2123:	4c 89 ee             	mov    %r13,%rsi
    2126:	44 89 e7             	mov    %r12d,%edi
    2129:	41 ff 14 df          	call   *(%r15,%rbx,8)
    212d:	48 83 c3 01          	add    $0x1,%rbx
    2131:	48 39 dd             	cmp    %rbx,%rbp
    2134:	75 ea                	jne    2120 <__libc_csu_init+0x40>
    2136:	48 83 c4 08          	add    $0x8,%rsp
    213a:	5b                   	pop    %rbx
    213b:	5d                   	pop    %rbp
    213c:	41 5c                	pop    %r12
    213e:	41 5d                	pop    %r13
    2140:	41 5e                	pop    %r14
    2142:	41 5f                	pop    %r15
    2144:	c3                   	ret    
    2145:	66 66 2e 0f 1f 84 00 	data16 cs nopw 0x0(%rax,%rax,1)
    214c:	00 00 00 00 

0000000000002150 <__libc_csu_fini>:
    2150:	f3 0f 1e fa          	endbr64 
    2154:	c3                   	ret    

Disassembly of section .fini:

0000000000002158 <_fini>:
    2158:	f3 0f 1e fa          	endbr64 
    215c:	48 83 ec 08          	sub    $0x8,%rsp
    2160:	48 83 c4 08          	add    $0x8,%rsp
    2164:	c3                   	ret    
