
unit6_les3_lab1.elf:     file format elf32-littlearm


Disassembly of section .text:

08000000 <main-0x50>:
 8000000:	20001000 	andcs	r1, r0, r0
 8000004:	080000fc 	stmdaeq	r0, {r2, r3, r4, r5, r6, r7}
 8000008:	08000103 	stmdaeq	r0, {r0, r1, r8}
 800000c:	08000103 	stmdaeq	r0, {r0, r1, r8}
 8000010:	08000103 	stmdaeq	r0, {r0, r1, r8}
 8000014:	08000103 	stmdaeq	r0, {r0, r1, r8}
 8000018:	08000103 	stmdaeq	r0, {r0, r1, r8}
 800001c:	08000103 	stmdaeq	r0, {r0, r1, r8}
 8000020:	08000103 	stmdaeq	r0, {r0, r1, r8}
 8000024:	08000103 	stmdaeq	r0, {r0, r1, r8}
 8000028:	08000103 	stmdaeq	r0, {r0, r1, r8}
 800002c:	08000103 	stmdaeq	r0, {r0, r1, r8}
 8000030:	08000103 	stmdaeq	r0, {r0, r1, r8}
 8000034:	08000103 	stmdaeq	r0, {r0, r1, r8}
 8000038:	08000103 	stmdaeq	r0, {r0, r1, r8}
 800003c:	08000103 	stmdaeq	r0, {r0, r1, r8}
 8000040:	08000103 	stmdaeq	r0, {r0, r1, r8}
 8000044:	08000103 	stmdaeq	r0, {r0, r1, r8}
 8000048:	08000103 	stmdaeq	r0, {r0, r1, r8}
 800004c:	08000103 	stmdaeq	r0, {r0, r1, r8}

08000050 <main>:
 8000050:	b480      	push	{r7}
 8000052:	b083      	sub	sp, #12
 8000054:	af00      	add	r7, sp, #0
 8000056:	4b24      	ldr	r3, [pc, #144]	; (80000e8 <main+0x98>)
 8000058:	681b      	ldr	r3, [r3, #0]
 800005a:	4a23      	ldr	r2, [pc, #140]	; (80000e8 <main+0x98>)
 800005c:	f043 0304 	orr.w	r3, r3, #4
 8000060:	6013      	str	r3, [r2, #0]
 8000062:	4b22      	ldr	r3, [pc, #136]	; (80000ec <main+0x9c>)
 8000064:	681b      	ldr	r3, [r3, #0]
 8000066:	4a21      	ldr	r2, [pc, #132]	; (80000ec <main+0x9c>)
 8000068:	f443 6380 	orr.w	r3, r3, #1024	; 0x400
 800006c:	6013      	str	r3, [r2, #0]
 800006e:	4b1f      	ldr	r3, [pc, #124]	; (80000ec <main+0x9c>)
 8000070:	681b      	ldr	r3, [r3, #0]
 8000072:	4a1e      	ldr	r2, [pc, #120]	; (80000ec <main+0x9c>)
 8000074:	f443 5320 	orr.w	r3, r3, #10240	; 0x2800
 8000078:	6013      	str	r3, [r2, #0]
 800007a:	4b1c      	ldr	r3, [pc, #112]	; (80000ec <main+0x9c>)
 800007c:	681b      	ldr	r3, [r3, #0]
 800007e:	4a1b      	ldr	r2, [pc, #108]	; (80000ec <main+0x9c>)
 8000080:	f443 13c0 	orr.w	r3, r3, #1572864	; 0x180000
 8000084:	6013      	str	r3, [r2, #0]
 8000086:	4b1a      	ldr	r3, [pc, #104]	; (80000f0 <main+0xa0>)
 8000088:	681b      	ldr	r3, [r3, #0]
 800008a:	4a19      	ldr	r2, [pc, #100]	; (80000f0 <main+0xa0>)
 800008c:	f043 7380 	orr.w	r3, r3, #16777216	; 0x1000000
 8000090:	6013      	str	r3, [r2, #0]
 8000092:	4b16      	ldr	r3, [pc, #88]	; (80000ec <main+0x9c>)
 8000094:	681b      	ldr	r3, [r3, #0]
 8000096:	4a15      	ldr	r2, [pc, #84]	; (80000ec <main+0x9c>)
 8000098:	f043 0302 	orr.w	r3, r3, #2
 800009c:	6013      	str	r3, [r2, #0]
 800009e:	4b15      	ldr	r3, [pc, #84]	; (80000f4 <main+0xa4>)
 80000a0:	681b      	ldr	r3, [r3, #0]
 80000a2:	4a14      	ldr	r2, [pc, #80]	; (80000f4 <main+0xa4>)
 80000a4:	f423 0370 	bic.w	r3, r3, #15728640	; 0xf00000
 80000a8:	6013      	str	r3, [r2, #0]
 80000aa:	4b12      	ldr	r3, [pc, #72]	; (80000f4 <main+0xa4>)
 80000ac:	681b      	ldr	r3, [r3, #0]
 80000ae:	4a11      	ldr	r2, [pc, #68]	; (80000f4 <main+0xa4>)
 80000b0:	f443 1300 	orr.w	r3, r3, #2097152	; 0x200000
 80000b4:	6013      	str	r3, [r2, #0]
 80000b6:	4b10      	ldr	r3, [pc, #64]	; (80000f8 <main+0xa8>)
 80000b8:	681b      	ldr	r3, [r3, #0]
 80000ba:	681b      	ldr	r3, [r3, #0]
 80000bc:	f3c3 3340 	ubfx	r3, r3, #13, #1
 80000c0:	b2db      	uxtb	r3, r3
 80000c2:	4a0d      	ldr	r2, [pc, #52]	; (80000f8 <main+0xa8>)
 80000c4:	6812      	ldr	r2, [r2, #0]
 80000c6:	f083 0301 	eor.w	r3, r3, #1
 80000ca:	b2d9      	uxtb	r1, r3
 80000cc:	8813      	ldrh	r3, [r2, #0]
 80000ce:	f361 334d 	bfi	r3, r1, #13, #1
 80000d2:	8013      	strh	r3, [r2, #0]
 80000d4:	2300      	movs	r3, #0
 80000d6:	607b      	str	r3, [r7, #4]
 80000d8:	e002      	b.n	80000e0 <main+0x90>
 80000da:	687b      	ldr	r3, [r7, #4]
 80000dc:	3301      	adds	r3, #1
 80000de:	607b      	str	r3, [r7, #4]
 80000e0:	687b      	ldr	r3, [r7, #4]
 80000e2:	2b63      	cmp	r3, #99	; 0x63
 80000e4:	ddf9      	ble.n	80000da <main+0x8a>
 80000e6:	e7e6      	b.n	80000b6 <main+0x66>
 80000e8:	40021018 	andmi	r1, r2, r8, lsl r0
 80000ec:	40021004 	andmi	r1, r2, r4
 80000f0:	40021000 	andmi	r1, r2, r0
 80000f4:	40010804 	andmi	r0, r1, r4, lsl #16
 80000f8:	08000104 	stmdaeq	r0, {r2, r8}

080000fc <_reset>:
 80000fc:	f7ff ffa8 	bl	8000050 <main>
 8000100:	e7fe      	b.n	8000100 <_reset+0x4>

08000102 <Vector_handler>:
 8000102:	e7fb      	b.n	80000fc <_reset>
