
PressureAlarm.elf:     file format elf32-littlearm


Disassembly of section .text:

08000000 <PressureSensor_set_pressure-0x50>:
 8000000:	20001000 	andcs	r1, r0, r0
 8000004:	080001fc 	stmdaeq	r0, {r2, r3, r4, r5, r6, r7, r8}
 8000008:	08000203 	stmdaeq	r0, {r0, r1, r9}
 800000c:	08000203 	stmdaeq	r0, {r0, r1, r9}
 8000010:	08000203 	stmdaeq	r0, {r0, r1, r9}
 8000014:	08000203 	stmdaeq	r0, {r0, r1, r9}
 8000018:	08000203 	stmdaeq	r0, {r0, r1, r9}
 800001c:	08000203 	stmdaeq	r0, {r0, r1, r9}
 8000020:	08000203 	stmdaeq	r0, {r0, r1, r9}
 8000024:	08000203 	stmdaeq	r0, {r0, r1, r9}
 8000028:	08000203 	stmdaeq	r0, {r0, r1, r9}
 800002c:	08000203 	stmdaeq	r0, {r0, r1, r9}
 8000030:	08000203 	stmdaeq	r0, {r0, r1, r9}
 8000034:	08000203 	stmdaeq	r0, {r0, r1, r9}
 8000038:	08000203 	stmdaeq	r0, {r0, r1, r9}
 800003c:	08000203 	stmdaeq	r0, {r0, r1, r9}
 8000040:	08000203 	stmdaeq	r0, {r0, r1, r9}
 8000044:	08000203 	stmdaeq	r0, {r0, r1, r9}
 8000048:	08000203 	stmdaeq	r0, {r0, r1, r9}
 800004c:	08000203 	stmdaeq	r0, {r0, r1, r9}

08000050 <PressureSensor_set_pressure>:
 8000050:	b580      	push	{r7, lr}
 8000052:	b082      	sub	sp, #8
 8000054:	af00      	add	r7, sp, #0
 8000056:	f000 f818 	bl	800008a <getPressureVal>
 800005a:	6078      	str	r0, [r7, #4]
 800005c:	687b      	ldr	r3, [r7, #4]
 800005e:	4618      	mov	r0, r3
 8000060:	3708      	adds	r7, #8
 8000062:	46bd      	mov	sp, r7
 8000064:	bd80      	pop	{r7, pc}
	...

08000068 <Delay>:
 8000068:	b480      	push	{r7}
 800006a:	b083      	sub	sp, #12
 800006c:	af00      	add	r7, sp, #0
 800006e:	6078      	str	r0, [r7, #4]
 8000070:	e002      	b.n	8000078 <Delay+0x10>
 8000072:	687b      	ldr	r3, [r7, #4]
 8000074:	3b01      	subs	r3, #1
 8000076:	607b      	str	r3, [r7, #4]
 8000078:	687b      	ldr	r3, [r7, #4]
 800007a:	2b00      	cmp	r3, #0
 800007c:	d1f9      	bne.n	8000072 <Delay+0xa>
 800007e:	bf00      	nop
 8000080:	bf00      	nop
 8000082:	370c      	adds	r7, #12
 8000084:	46bd      	mov	sp, r7
 8000086:	bc80      	pop	{r7}
 8000088:	4770      	bx	lr

0800008a <getPressureVal>:
 800008a:	b480      	push	{r7}
 800008c:	af00      	add	r7, sp, #0
 800008e:	4b03      	ldr	r3, [pc, #12]	; (800009c <getPressureVal+0x12>)
 8000090:	681b      	ldr	r3, [r3, #0]
 8000092:	b2db      	uxtb	r3, r3
 8000094:	4618      	mov	r0, r3
 8000096:	46bd      	mov	sp, r7
 8000098:	bc80      	pop	{r7}
 800009a:	4770      	bx	lr
 800009c:	40010808 	andmi	r0, r1, r8, lsl #16

080000a0 <Set_Alarm_actuator>:
 80000a0:	b480      	push	{r7}
 80000a2:	b083      	sub	sp, #12
 80000a4:	af00      	add	r7, sp, #0
 80000a6:	6078      	str	r0, [r7, #4]
 80000a8:	687b      	ldr	r3, [r7, #4]
 80000aa:	2b01      	cmp	r3, #1
 80000ac:	d106      	bne.n	80000bc <Set_Alarm_actuator+0x1c>
 80000ae:	4b0a      	ldr	r3, [pc, #40]	; (80000d8 <Set_Alarm_actuator+0x38>)
 80000b0:	681b      	ldr	r3, [r3, #0]
 80000b2:	4a09      	ldr	r2, [pc, #36]	; (80000d8 <Set_Alarm_actuator+0x38>)
 80000b4:	f443 5300 	orr.w	r3, r3, #8192	; 0x2000
 80000b8:	6013      	str	r3, [r2, #0]
 80000ba:	e008      	b.n	80000ce <Set_Alarm_actuator+0x2e>
 80000bc:	687b      	ldr	r3, [r7, #4]
 80000be:	2b00      	cmp	r3, #0
 80000c0:	d105      	bne.n	80000ce <Set_Alarm_actuator+0x2e>
 80000c2:	4b05      	ldr	r3, [pc, #20]	; (80000d8 <Set_Alarm_actuator+0x38>)
 80000c4:	681b      	ldr	r3, [r3, #0]
 80000c6:	4a04      	ldr	r2, [pc, #16]	; (80000d8 <Set_Alarm_actuator+0x38>)
 80000c8:	f423 5300 	bic.w	r3, r3, #8192	; 0x2000
 80000cc:	6013      	str	r3, [r2, #0]
 80000ce:	bf00      	nop
 80000d0:	370c      	adds	r7, #12
 80000d2:	46bd      	mov	sp, r7
 80000d4:	bc80      	pop	{r7}
 80000d6:	4770      	bx	lr
 80000d8:	4001080c 	andmi	r0, r1, ip, lsl #16

080000dc <GPIO_INITIALIZATION>:
 80000dc:	b480      	push	{r7}
 80000de:	af00      	add	r7, sp, #0
 80000e0:	4b0f      	ldr	r3, [pc, #60]	; (8000120 <GPIO_INITIALIZATION+0x44>)
 80000e2:	681b      	ldr	r3, [r3, #0]
 80000e4:	4a0e      	ldr	r2, [pc, #56]	; (8000120 <GPIO_INITIALIZATION+0x44>)
 80000e6:	f043 0304 	orr.w	r3, r3, #4
 80000ea:	6013      	str	r3, [r2, #0]
 80000ec:	4b0d      	ldr	r3, [pc, #52]	; (8000124 <GPIO_INITIALIZATION+0x48>)
 80000ee:	681b      	ldr	r3, [r3, #0]
 80000f0:	4a0c      	ldr	r2, [pc, #48]	; (8000124 <GPIO_INITIALIZATION+0x48>)
 80000f2:	f423 0370 	bic.w	r3, r3, #15728640	; 0xf00000
 80000f6:	6013      	str	r3, [r2, #0]
 80000f8:	4b0a      	ldr	r3, [pc, #40]	; (8000124 <GPIO_INITIALIZATION+0x48>)
 80000fa:	4a0a      	ldr	r2, [pc, #40]	; (8000124 <GPIO_INITIALIZATION+0x48>)
 80000fc:	681b      	ldr	r3, [r3, #0]
 80000fe:	6013      	str	r3, [r2, #0]
 8000100:	4b09      	ldr	r3, [pc, #36]	; (8000128 <GPIO_INITIALIZATION+0x4c>)
 8000102:	681b      	ldr	r3, [r3, #0]
 8000104:	4a08      	ldr	r2, [pc, #32]	; (8000128 <GPIO_INITIALIZATION+0x4c>)
 8000106:	f423 0370 	bic.w	r3, r3, #15728640	; 0xf00000
 800010a:	6013      	str	r3, [r2, #0]
 800010c:	4b06      	ldr	r3, [pc, #24]	; (8000128 <GPIO_INITIALIZATION+0x4c>)
 800010e:	681b      	ldr	r3, [r3, #0]
 8000110:	4a05      	ldr	r2, [pc, #20]	; (8000128 <GPIO_INITIALIZATION+0x4c>)
 8000112:	f043 3322 	orr.w	r3, r3, #572662306	; 0x22222222
 8000116:	6013      	str	r3, [r2, #0]
 8000118:	bf00      	nop
 800011a:	46bd      	mov	sp, r7
 800011c:	bc80      	pop	{r7}
 800011e:	4770      	bx	lr
 8000120:	40021018 	andmi	r1, r2, r8, lsl r0
 8000124:	40010800 	andmi	r0, r1, r0, lsl #16
 8000128:	40010804 	andmi	r0, r1, r4, lsl #16

0800012c <main>:
 800012c:	b580      	push	{r7, lr}
 800012e:	af00      	add	r7, sp, #0
 8000130:	f000 f806 	bl	8000140 <init>
 8000134:	4b01      	ldr	r3, [pc, #4]	; (800013c <main+0x10>)
 8000136:	681b      	ldr	r3, [r3, #0]
 8000138:	4798      	blx	r3
 800013a:	e7fb      	b.n	8000134 <main+0x8>
 800013c:	20000004 	andcs	r0, r0, r4

08000140 <init>:
 8000140:	b580      	push	{r7, lr}
 8000142:	af00      	add	r7, sp, #0
 8000144:	f7ff ffca 	bl	80000dc <GPIO_INITIALIZATION>
 8000148:	4b03      	ldr	r3, [pc, #12]	; (8000158 <init+0x18>)
 800014a:	4a04      	ldr	r2, [pc, #16]	; (800015c <init+0x1c>)
 800014c:	601a      	str	r2, [r3, #0]
 800014e:	4b04      	ldr	r3, [pc, #16]	; (8000160 <init+0x20>)
 8000150:	2200      	movs	r2, #0
 8000152:	601a      	str	r2, [r3, #0]
 8000154:	bf00      	nop
 8000156:	bd80      	pop	{r7, pc}
 8000158:	20000004 	andcs	r0, r0, r4
 800015c:	080001c5 	stmdaeq	r0, {r0, r2, r6, r7, r8}
 8000160:	20000000 	andcs	r0, r0, r0

08000164 <HighPressure>:
 8000164:	b580      	push	{r7, lr}
 8000166:	af00      	add	r7, sp, #0
 8000168:	4b07      	ldr	r3, [pc, #28]	; (8000188 <HighPressure+0x24>)
 800016a:	2200      	movs	r2, #0
 800016c:	601a      	str	r2, [r3, #0]
 800016e:	4b06      	ldr	r3, [pc, #24]	; (8000188 <HighPressure+0x24>)
 8000170:	681b      	ldr	r3, [r3, #0]
 8000172:	4618      	mov	r0, r3
 8000174:	f7ff ff94 	bl	80000a0 <Set_Alarm_actuator>
 8000178:	4804      	ldr	r0, [pc, #16]	; (800018c <HighPressure+0x28>)
 800017a:	f7ff ff75 	bl	8000068 <Delay>
 800017e:	4b04      	ldr	r3, [pc, #16]	; (8000190 <HighPressure+0x2c>)
 8000180:	4a04      	ldr	r2, [pc, #16]	; (8000194 <HighPressure+0x30>)
 8000182:	601a      	str	r2, [r3, #0]
 8000184:	bf00      	nop
 8000186:	bd80      	pop	{r7, pc}
 8000188:	20000000 	andcs	r0, r0, r0
 800018c:	000dbba0 	andeq	fp, sp, r0, lsr #23
 8000190:	20000004 	andcs	r0, r0, r4
 8000194:	080001c5 	stmdaeq	r0, {r0, r2, r6, r7, r8}

08000198 <SafePressure>:
 8000198:	b580      	push	{r7, lr}
 800019a:	af00      	add	r7, sp, #0
 800019c:	4b06      	ldr	r3, [pc, #24]	; (80001b8 <SafePressure+0x20>)
 800019e:	2201      	movs	r2, #1
 80001a0:	601a      	str	r2, [r3, #0]
 80001a2:	4b05      	ldr	r3, [pc, #20]	; (80001b8 <SafePressure+0x20>)
 80001a4:	681b      	ldr	r3, [r3, #0]
 80001a6:	4618      	mov	r0, r3
 80001a8:	f7ff ff7a 	bl	80000a0 <Set_Alarm_actuator>
 80001ac:	4b03      	ldr	r3, [pc, #12]	; (80001bc <SafePressure+0x24>)
 80001ae:	4a04      	ldr	r2, [pc, #16]	; (80001c0 <SafePressure+0x28>)
 80001b0:	601a      	str	r2, [r3, #0]
 80001b2:	bf00      	nop
 80001b4:	bd80      	pop	{r7, pc}
 80001b6:	bf00      	nop
 80001b8:	20000000 	andcs	r0, r0, r0
 80001bc:	20000004 	andcs	r0, r0, r4
 80001c0:	080001c5 	stmdaeq	r0, {r0, r2, r6, r7, r8}

080001c4 <ReceivingPressureVal>:
 80001c4:	b580      	push	{r7, lr}
 80001c6:	b082      	sub	sp, #8
 80001c8:	af00      	add	r7, sp, #0
 80001ca:	f7ff ff41 	bl	8000050 <PressureSensor_set_pressure>
 80001ce:	6078      	str	r0, [r7, #4]
 80001d0:	f44f 707a 	mov.w	r0, #1000	; 0x3e8
 80001d4:	f7ff ff48 	bl	8000068 <Delay>
 80001d8:	687b      	ldr	r3, [r7, #4]
 80001da:	2b13      	cmp	r3, #19
 80001dc:	dd01      	ble.n	80001e2 <ReceivingPressureVal+0x1e>
 80001de:	4b04      	ldr	r3, [pc, #16]	; (80001f0 <ReceivingPressureVal+0x2c>)
 80001e0:	e000      	b.n	80001e4 <ReceivingPressureVal+0x20>
 80001e2:	4b04      	ldr	r3, [pc, #16]	; (80001f4 <ReceivingPressureVal+0x30>)
 80001e4:	4a04      	ldr	r2, [pc, #16]	; (80001f8 <ReceivingPressureVal+0x34>)
 80001e6:	6013      	str	r3, [r2, #0]
 80001e8:	bf00      	nop
 80001ea:	3708      	adds	r7, #8
 80001ec:	46bd      	mov	sp, r7
 80001ee:	bd80      	pop	{r7, pc}
 80001f0:	08000165 	stmdaeq	r0, {r0, r2, r5, r6, r8}
 80001f4:	08000199 	stmdaeq	r0, {r0, r3, r4, r7, r8}
 80001f8:	20000004 	andcs	r0, r0, r4

080001fc <_reset>:
 80001fc:	f7ff ff96 	bl	800012c <main>
 8000200:	e7fe      	b.n	8000200 <_reset+0x4>

08000202 <Vector_handler>:
 8000202:	e7fb      	b.n	80001fc <_reset>
